
app.elf:     file format elf64-littleaarch64


Disassembly of section .text:

0000000000080000 <_start>:
   80000:	b26503ff 	mov	sp, #0x8000000             	// #134217728
   80004:	d280001d 	mov	x29, #0x0                   	// #0
   80008:	94000002 	bl	80010 <_cstart>

000000000008000c <hang>:
   8000c:	14000000 	b	8000c <hang>

0000000000080010 <_cstart>:
   80010:	a9bf7bfd 	stp	x29, x30, [sp, #-16]!
   80014:	910003fd 	mov	x29, sp
   80018:	90000000 	adrp	x0, 80000 <_start>
   8001c:	913ca000 	add	x0, x0, #0xf28
   80020:	14000003 	b	8002c <_cstart+0x1c>
   80024:	b900001f 	str	wzr, [x0]
   80028:	91001000 	add	x0, x0, #0x4
   8002c:	90000001 	adrp	x1, 80000 <_start>
   80030:	913d0021 	add	x1, x1, #0xf40
   80034:	eb01001f 	cmp	x0, x1
   80038:	54ffff63 	b.cc	80024 <_cstart+0x14>  // b.lo, b.ul, b.last
   8003c:	9400039e 	bl	80eb4 <main>
   80040:	a8c17bfd 	ldp	x29, x30, [sp], #16
   80044:	d65f03c0 	ret

0000000000080048 <calculate_FSEL_register>:
   80048:	529999a1 	mov	w1, #0xcccd                	// #52429
   8004c:	72b99981 	movk	w1, #0xcccc, lsl #16
   80050:	9ba17c00 	umull	x0, w0, w1
   80054:	d360fc00 	lsr	x0, x0, #32
   80058:	53037c00 	lsr	w0, w0, #3
   8005c:	7100081f 	cmp	w0, #0x2
   80060:	540002a0 	b.eq	800b4 <calculate_FSEL_register+0x6c>  // b.none
   80064:	54000149 	b.ls	8008c <calculate_FSEL_register+0x44>  // b.plast
   80068:	7100101f 	cmp	w0, #0x4
   8006c:	54000340 	b.eq	800d4 <calculate_FSEL_register+0x8c>  // b.none
   80070:	540002a3 	b.cc	800c4 <calculate_FSEL_register+0x7c>  // b.lo, b.ul, b.last
   80074:	7100141f 	cmp	w0, #0x5
   80078:	54000361 	b.ne	800e4 <calculate_FSEL_register+0x9c>  // b.any
   8007c:	90000000 	adrp	x0, 80000 <_start>
   80080:	f9479400 	ldr	x0, [x0, #3880]
   80084:	91005000 	add	x0, x0, #0x14
   80088:	1400000a 	b	800b0 <calculate_FSEL_register+0x68>
   8008c:	340000e0 	cbz	w0, 800a8 <calculate_FSEL_register+0x60>
   80090:	7100041f 	cmp	w0, #0x1
   80094:	54000281 	b.ne	800e4 <calculate_FSEL_register+0x9c>  // b.any
   80098:	90000000 	adrp	x0, 80000 <_start>
   8009c:	f9479400 	ldr	x0, [x0, #3880]
   800a0:	91001000 	add	x0, x0, #0x4
   800a4:	14000003 	b	800b0 <calculate_FSEL_register+0x68>
   800a8:	90000000 	adrp	x0, 80000 <_start>
   800ac:	f9479400 	ldr	x0, [x0, #3880]
   800b0:	d65f03c0 	ret
   800b4:	90000000 	adrp	x0, 80000 <_start>
   800b8:	f9479400 	ldr	x0, [x0, #3880]
   800bc:	91002000 	add	x0, x0, #0x8
   800c0:	17fffffc 	b	800b0 <calculate_FSEL_register+0x68>
   800c4:	90000000 	adrp	x0, 80000 <_start>
   800c8:	f9479400 	ldr	x0, [x0, #3880]
   800cc:	91003000 	add	x0, x0, #0xc
   800d0:	17fffff8 	b	800b0 <calculate_FSEL_register+0x68>
   800d4:	90000000 	adrp	x0, 80000 <_start>
   800d8:	f9479400 	ldr	x0, [x0, #3880]
   800dc:	91004000 	add	x0, x0, #0x10
   800e0:	17fffff4 	b	800b0 <calculate_FSEL_register+0x68>
   800e4:	d2800000 	mov	x0, #0x0                   	// #0
   800e8:	17fffff2 	b	800b0 <calculate_FSEL_register+0x68>

00000000000800ec <pin_to_bit_map>:
   800ec:	12001000 	and	w0, w0, #0x1f
   800f0:	d65f03c0 	ret

00000000000800f4 <pin_to_set_register_map>:
   800f4:	71007c1f 	cmp	w0, #0x1f
   800f8:	540000a9 	b.ls	8010c <pin_to_set_register_map+0x18>  // b.plast
   800fc:	90000000 	adrp	x0, 80000 <_start>
   80100:	f9479400 	ldr	x0, [x0, #3880]
   80104:	91008000 	add	x0, x0, #0x20
   80108:	d65f03c0 	ret
   8010c:	90000000 	adrp	x0, 80000 <_start>
   80110:	f9479400 	ldr	x0, [x0, #3880]
   80114:	91007000 	add	x0, x0, #0x1c
   80118:	17fffffc 	b	80108 <pin_to_set_register_map+0x14>

000000000008011c <pin_to_clear_register_map>:
   8011c:	71007c1f 	cmp	w0, #0x1f
   80120:	540000a9 	b.ls	80134 <pin_to_clear_register_map+0x18>  // b.plast
   80124:	90000000 	adrp	x0, 80000 <_start>
   80128:	f9479400 	ldr	x0, [x0, #3880]
   8012c:	9100b000 	add	x0, x0, #0x2c
   80130:	d65f03c0 	ret
   80134:	90000000 	adrp	x0, 80000 <_start>
   80138:	f9479400 	ldr	x0, [x0, #3880]
   8013c:	9100a000 	add	x0, x0, #0x28
   80140:	17fffffc 	b	80130 <pin_to_clear_register_map+0x14>

0000000000080144 <pin_to_lev_register_map>:
   80144:	71007c1f 	cmp	w0, #0x1f
   80148:	540000a9 	b.ls	8015c <pin_to_lev_register_map+0x18>  // b.plast
   8014c:	90000000 	adrp	x0, 80000 <_start>
   80150:	f9479400 	ldr	x0, [x0, #3880]
   80154:	9100e000 	add	x0, x0, #0x38
   80158:	d65f03c0 	ret
   8015c:	90000000 	adrp	x0, 80000 <_start>
   80160:	f9479400 	ldr	x0, [x0, #3880]
   80164:	9100d000 	add	x0, x0, #0x34
   80168:	17fffffc 	b	80158 <pin_to_lev_register_map+0x14>

000000000008016c <gpio_init>:
   8016c:	90000000 	adrp	x0, 80000 <_start>
   80170:	d2a7e401 	mov	x1, #0x3f200000            	// #1059061760
   80174:	f9079401 	str	x1, [x0, #3880]
   80178:	d65f03c0 	ret

000000000008017c <gpio_set_function>:
   8017c:	7100d41f 	cmp	w0, #0x35
   80180:	1a9f87e3 	cset	w3, ls  // ls = plast
   80184:	71001c3f 	cmp	w1, #0x7
   80188:	1a9f87e2 	cset	w2, ls  // ls = plast
   8018c:	6a02007f 	tst	w3, w2
   80190:	54000300 	b.eq	801f0 <gpio_set_function+0x74>  // b.none
   80194:	a9be7bfd 	stp	x29, x30, [sp, #-32]!
   80198:	910003fd 	mov	x29, sp
   8019c:	a90153f3 	stp	x19, x20, [sp, #16]
   801a0:	2a0103f4 	mov	w20, w1
   801a4:	2a0003f3 	mov	w19, w0
   801a8:	97ffffa8 	bl	80048 <calculate_FSEL_register>
   801ac:	b40001c0 	cbz	x0, 801e4 <gpio_set_function+0x68>
   801b0:	529999a2 	mov	w2, #0xcccd                	// #52429
   801b4:	72b99982 	movk	w2, #0xcccc, lsl #16
   801b8:	9ba27e62 	umull	x2, w19, w2
   801bc:	d360fc42 	lsr	x2, x2, #32
   801c0:	53037c42 	lsr	w2, w2, #3
   801c4:	52800141 	mov	w1, #0xa                   	// #10
   801c8:	1b01cc42 	msub	w2, w2, w1, w19
   801cc:	b9400003 	ldr	w3, [x0]
   801d0:	0b020041 	add	w1, w2, w2
   801d4:	0b020021 	add	w1, w1, w2
   801d8:	1ac12281 	lsl	w1, w20, w1
   801dc:	2a010061 	orr	w1, w3, w1
   801e0:	b9000001 	str	w1, [x0]
   801e4:	a94153f3 	ldp	x19, x20, [sp, #16]
   801e8:	a8c27bfd 	ldp	x29, x30, [sp], #32
   801ec:	d65f03c0 	ret
   801f0:	d65f03c0 	ret

00000000000801f4 <gpio_get_function>:
   801f4:	a9be7bfd 	stp	x29, x30, [sp, #-32]!
   801f8:	910003fd 	mov	x29, sp
   801fc:	f9000bf3 	str	x19, [sp, #16]
   80200:	2a0003f3 	mov	w19, w0
   80204:	97ffff91 	bl	80048 <calculate_FSEL_register>
   80208:	b4000200 	cbz	x0, 80248 <gpio_get_function+0x54>
   8020c:	529999a1 	mov	w1, #0xcccd                	// #52429
   80210:	72b99981 	movk	w1, #0xcccc, lsl #16
   80214:	9ba17e61 	umull	x1, w19, w1
   80218:	d360fc21 	lsr	x1, x1, #32
   8021c:	53037c21 	lsr	w1, w1, #3
   80220:	52800142 	mov	w2, #0xa                   	// #10
   80224:	1b02cc21 	msub	w1, w1, w2, w19
   80228:	b9400000 	ldr	w0, [x0]
   8022c:	0b010022 	add	w2, w1, w1
   80230:	0b010041 	add	w1, w2, w1
   80234:	1ac12400 	lsr	w0, w0, w1
   80238:	12000800 	and	w0, w0, #0x7
   8023c:	f9400bf3 	ldr	x19, [sp, #16]
   80240:	a8c27bfd 	ldp	x29, x30, [sp], #32
   80244:	d65f03c0 	ret
   80248:	12800000 	mov	w0, #0xffffffff            	// #-1
   8024c:	17fffffc 	b	8023c <gpio_get_function+0x48>

0000000000080250 <gpio_set_input>:
   80250:	a9bf7bfd 	stp	x29, x30, [sp, #-16]!
   80254:	910003fd 	mov	x29, sp
   80258:	52800001 	mov	w1, #0x0                   	// #0
   8025c:	97ffffc8 	bl	8017c <gpio_set_function>
   80260:	a8c17bfd 	ldp	x29, x30, [sp], #16
   80264:	d65f03c0 	ret

0000000000080268 <gpio_set_output>:
   80268:	a9bf7bfd 	stp	x29, x30, [sp, #-16]!
   8026c:	910003fd 	mov	x29, sp
   80270:	52800021 	mov	w1, #0x1                   	// #1
   80274:	97ffffc2 	bl	8017c <gpio_set_function>
   80278:	a8c17bfd 	ldp	x29, x30, [sp], #16
   8027c:	d65f03c0 	ret

0000000000080280 <gpio_write>:
   80280:	a9bd7bfd 	stp	x29, x30, [sp, #-48]!
   80284:	910003fd 	mov	x29, sp
   80288:	a90153f3 	stp	x19, x20, [sp, #16]
   8028c:	f90013f5 	str	x21, [sp, #32]
   80290:	2a0003f4 	mov	w20, w0
   80294:	2a0103f5 	mov	w21, w1
   80298:	97ffff95 	bl	800ec <pin_to_bit_map>
   8029c:	2a0003f3 	mov	w19, w0
   802a0:	35000155 	cbnz	w21, 802c8 <gpio_write+0x48>
   802a4:	2a1403e0 	mov	w0, w20
   802a8:	97ffff9d 	bl	8011c <pin_to_clear_register_map>
   802ac:	52800021 	mov	w1, #0x1                   	// #1
   802b0:	1ad32021 	lsl	w1, w1, w19
   802b4:	b9000001 	str	w1, [x0]
   802b8:	a94153f3 	ldp	x19, x20, [sp, #16]
   802bc:	f94013f5 	ldr	x21, [sp, #32]
   802c0:	a8c37bfd 	ldp	x29, x30, [sp], #48
   802c4:	d65f03c0 	ret
   802c8:	2a1403e0 	mov	w0, w20
   802cc:	97ffff8a 	bl	800f4 <pin_to_set_register_map>
   802d0:	17fffff7 	b	802ac <gpio_write+0x2c>

00000000000802d4 <gpio_read>:
   802d4:	a9be7bfd 	stp	x29, x30, [sp, #-32]!
   802d8:	910003fd 	mov	x29, sp
   802dc:	a90153f3 	stp	x19, x20, [sp, #16]
   802e0:	2a0003f4 	mov	w20, w0
   802e4:	97ffff98 	bl	80144 <pin_to_lev_register_map>
   802e8:	aa0003f3 	mov	x19, x0
   802ec:	2a1403e0 	mov	w0, w20
   802f0:	97ffff7f 	bl	800ec <pin_to_bit_map>
   802f4:	b9400261 	ldr	w1, [x19]
   802f8:	1ac02420 	lsr	w0, w1, w0
   802fc:	12000000 	and	w0, w0, #0x1
   80300:	a94153f3 	ldp	x19, x20, [sp, #16]
   80304:	a8c27bfd 	ldp	x29, x30, [sp], #32
   80308:	d65f03c0 	ret

000000000008030c <timer_init>:
   8030c:	d2968000 	mov	x0, #0xb400                	// #46080
   80310:	f2a7e000 	movk	x0, #0x3f00, lsl #16
   80314:	90000001 	adrp	x1, 80000 <_start>
   80318:	f9079820 	str	x0, [x1, #3888]
   8031c:	52804001 	mov	w1, #0x200                 	// #512
   80320:	72a01f21 	movk	w1, #0xf9, lsl #16
   80324:	b9000801 	str	w1, [x0, #8]
   80328:	d65f03c0 	ret

000000000008032c <timer_get_ticks>:
   8032c:	90000000 	adrp	x0, 80000 <_start>
   80330:	f9479800 	ldr	x0, [x0, #3888]
   80334:	b9402000 	ldr	w0, [x0, #32]
   80338:	d65f03c0 	ret

000000000008033c <timer_delay_us>:
   8033c:	a9be7bfd 	stp	x29, x30, [sp, #-32]!
   80340:	910003fd 	mov	x29, sp
   80344:	a90153f3 	stp	x19, x20, [sp, #16]
   80348:	2a0003f4 	mov	w20, w0
   8034c:	97fffff8 	bl	8032c <timer_get_ticks>
   80350:	2a0003f3 	mov	w19, w0
   80354:	97fffff6 	bl	8032c <timer_get_ticks>
   80358:	4b130000 	sub	w0, w0, w19
   8035c:	6b14001f 	cmp	w0, w20
   80360:	54ffffa3 	b.cc	80354 <timer_delay_us+0x18>  // b.lo, b.ul, b.last
   80364:	a94153f3 	ldp	x19, x20, [sp, #16]
   80368:	a8c27bfd 	ldp	x29, x30, [sp], #32
   8036c:	d65f03c0 	ret

0000000000080370 <timer_delay_ms>:
   80370:	a9bf7bfd 	stp	x29, x30, [sp, #-16]!
   80374:	910003fd 	mov	x29, sp
   80378:	52807d01 	mov	w1, #0x3e8                 	// #1000
   8037c:	1b017c00 	mul	w0, w0, w1
   80380:	97ffffef 	bl	8033c <timer_delay_us>
   80384:	a8c17bfd 	ldp	x29, x30, [sp], #16
   80388:	d65f03c0 	ret

000000000008038c <timer_delay>:
   8038c:	a9bf7bfd 	stp	x29, x30, [sp, #-16]!
   80390:	910003fd 	mov	x29, sp
   80394:	52884801 	mov	w1, #0x4240                	// #16960
   80398:	72a001e1 	movk	w1, #0xf, lsl #16
   8039c:	1b017c00 	mul	w0, w0, w1
   803a0:	97ffffe7 	bl	8033c <timer_delay_us>
   803a4:	a8c17bfd 	ldp	x29, x30, [sp], #16
   803a8:	d65f03c0 	ret

00000000000803ac <strtonum_hex>:
   803ac:	91000804 	add	x4, x0, #0x2
   803b0:	52800000 	mov	w0, #0x0                   	// #0
   803b4:	14000008 	b	803d4 <strtonum_hex+0x28>
   803b8:	51010443 	sub	w3, w2, #0x41
   803bc:	12001c63 	and	w3, w3, #0xff
   803c0:	7100147f 	cmp	w3, #0x5
   803c4:	540001c8 	b.hi	803fc <strtonum_hex+0x50>  // b.pmore
   803c8:	0b000040 	add	w0, w2, w0
   803cc:	5100dc00 	sub	w0, w0, #0x37
   803d0:	91000484 	add	x4, x4, #0x1
   803d4:	39400082 	ldrb	w2, [x4]
   803d8:	34000222 	cbz	w2, 8041c <strtonum_hex+0x70>
   803dc:	531c6c00 	lsl	w0, w0, #4
   803e0:	5100c043 	sub	w3, w2, #0x30
   803e4:	12001c63 	and	w3, w3, #0xff
   803e8:	7100247f 	cmp	w3, #0x9
   803ec:	54fffe68 	b.hi	803b8 <strtonum_hex+0xc>  // b.pmore
   803f0:	0b000040 	add	w0, w2, w0
   803f4:	5100c000 	sub	w0, w0, #0x30
   803f8:	17fffff6 	b	803d0 <strtonum_hex+0x24>
   803fc:	51018443 	sub	w3, w2, #0x61
   80400:	12001c63 	and	w3, w3, #0xff
   80404:	7100147f 	cmp	w3, #0x5
   80408:	54000088 	b.hi	80418 <strtonum_hex+0x6c>  // b.pmore
   8040c:	0b000040 	add	w0, w2, w0
   80410:	51015c00 	sub	w0, w0, #0x57
   80414:	17ffffef 	b	803d0 <strtonum_hex+0x24>
   80418:	f9000024 	str	x4, [x1]
   8041c:	d65f03c0 	ret

0000000000080420 <strtonum_decimal>:
   80420:	aa0003e4 	mov	x4, x0
   80424:	52800000 	mov	w0, #0x0                   	// #0
   80428:	39400082 	ldrb	w2, [x4]
   8042c:	34000162 	cbz	w2, 80458 <strtonum_decimal+0x38>
   80430:	5100c043 	sub	w3, w2, #0x30
   80434:	12001c63 	and	w3, w3, #0xff
   80438:	7100247f 	cmp	w3, #0x9
   8043c:	540000c8 	b.hi	80454 <strtonum_decimal+0x34>  // b.pmore
   80440:	52800143 	mov	w3, #0xa                   	// #10
   80444:	1b030802 	madd	w2, w0, w3, w2
   80448:	5100c040 	sub	w0, w2, #0x30
   8044c:	91000484 	add	x4, x4, #0x1
   80450:	17fffff6 	b	80428 <strtonum_decimal+0x8>
   80454:	f9000024 	str	x4, [x1]
   80458:	d65f03c0 	ret

000000000008045c <memset>:
   8045c:	d2800003 	mov	x3, #0x0                   	// #0
   80460:	14000003 	b	8046c <memset+0x10>
   80464:	38236801 	strb	w1, [x0, x3]
   80468:	91000463 	add	x3, x3, #0x1
   8046c:	eb02007f 	cmp	x3, x2
   80470:	54ffffa3 	b.cc	80464 <memset+0x8>  // b.lo, b.ul, b.last
   80474:	d65f03c0 	ret

0000000000080478 <memcpy>:
   80478:	d2800003 	mov	x3, #0x0                   	// #0
   8047c:	14000004 	b	8048c <memcpy+0x14>
   80480:	38636824 	ldrb	w4, [x1, x3]
   80484:	38236804 	strb	w4, [x0, x3]
   80488:	91000463 	add	x3, x3, #0x1
   8048c:	eb02007f 	cmp	x3, x2
   80490:	54ffff83 	b.cc	80480 <memcpy+0x8>  // b.lo, b.ul, b.last
   80494:	d65f03c0 	ret

0000000000080498 <strlen>:
   80498:	52800001 	mov	w1, #0x0                   	// #0
   8049c:	14000003 	b	804a8 <strlen+0x10>
   804a0:	11000421 	add	w1, w1, #0x1
   804a4:	aa0203e0 	mov	x0, x2
   804a8:	91000402 	add	x2, x0, #0x1
   804ac:	39400000 	ldrb	w0, [x0]
   804b0:	35ffff80 	cbnz	w0, 804a0 <strlen+0x8>
   804b4:	2a0103e0 	mov	w0, w1
   804b8:	d65f03c0 	ret

00000000000804bc <strcmp>:
   804bc:	a9bd7bfd 	stp	x29, x30, [sp, #-48]!
   804c0:	910003fd 	mov	x29, sp
   804c4:	a90153f3 	stp	x19, x20, [sp, #16]
   804c8:	f90013f5 	str	x21, [sp, #32]
   804cc:	aa0003f5 	mov	x21, x0
   804d0:	aa0103f4 	mov	x20, x1
   804d4:	97fffff1 	bl	80498 <strlen>
   804d8:	2a0003f3 	mov	w19, w0
   804dc:	aa1403e0 	mov	x0, x20
   804e0:	97ffffee 	bl	80498 <strlen>
   804e4:	6b00027f 	cmp	w19, w0
   804e8:	54000100 	b.eq	80508 <strcmp+0x4c>  // b.none
   804ec:	4b000260 	sub	w0, w19, w0
   804f0:	a94153f3 	ldp	x19, x20, [sp, #16]
   804f4:	f94013f5 	ldr	x21, [sp, #32]
   804f8:	a8c37bfd 	ldp	x29, x30, [sp], #48
   804fc:	d65f03c0 	ret
   80500:	910006b5 	add	x21, x21, #0x1
   80504:	91000694 	add	x20, x20, #0x1
   80508:	394002a0 	ldrb	w0, [x21]
   8050c:	39400293 	ldrb	w19, [x20]
   80510:	6b13001f 	cmp	w0, w19
   80514:	54000041 	b.ne	8051c <strcmp+0x60>  // b.any
   80518:	35ffff40 	cbnz	w0, 80500 <strcmp+0x44>
   8051c:	4b130000 	sub	w0, w0, w19
   80520:	17fffff4 	b	804f0 <strcmp+0x34>

0000000000080524 <strtonum>:
   80524:	a9bf7bfd 	stp	x29, x30, [sp, #-16]!
   80528:	910003fd 	mov	x29, sp
   8052c:	39400002 	ldrb	w2, [x0]
   80530:	7100c05f 	cmp	w2, #0x30
   80534:	540000e1 	b.ne	80550 <strtonum+0x2c>  // b.any
   80538:	39400403 	ldrb	w3, [x0, #1]
   8053c:	7101e07f 	cmp	w3, #0x78
   80540:	1a9f17e2 	cset	w2, eq  // eq = none
   80544:	7101607f 	cmp	w3, #0x58
   80548:	1a9f1442 	csinc	w2, w2, wzr, ne  // ne = any
   8054c:	35000082 	cbnz	w2, 8055c <strtonum+0x38>
   80550:	97ffffb4 	bl	80420 <strtonum_decimal>
   80554:	a8c17bfd 	ldp	x29, x30, [sp], #16
   80558:	d65f03c0 	ret
   8055c:	97ffff94 	bl	803ac <strtonum_hex>
   80560:	17fffffd 	b	80554 <strtonum+0x30>

0000000000080564 <strlcat>:
   80564:	a9bd7bfd 	stp	x29, x30, [sp, #-48]!
   80568:	910003fd 	mov	x29, sp
   8056c:	a90153f3 	stp	x19, x20, [sp, #16]
   80570:	f90013f5 	str	x21, [sp, #32]
   80574:	aa0003f4 	mov	x20, x0
   80578:	aa0103f3 	mov	x19, x1
   8057c:	2a0203f5 	mov	w21, w2
   80580:	97ffffc6 	bl	80498 <strlen>
   80584:	52800002 	mov	w2, #0x0                   	// #0
   80588:	14000004 	b	80598 <strlcat+0x34>
   8058c:	8b20c063 	add	x3, x3, w0, sxtw
   80590:	38236a84 	strb	w4, [x20, x3]
   80594:	11000442 	add	w2, w2, #0x1
   80598:	93407c43 	sxtw	x3, w2
   8059c:	3862ca64 	ldrb	w4, [x19, w2, sxtw]
   805a0:	340000c4 	cbz	w4, 805b8 <strlcat+0x54>
   805a4:	0b000041 	add	w1, w2, w0
   805a8:	11000421 	add	w1, w1, #0x1
   805ac:	4b0102a1 	sub	w1, w21, w1
   805b0:	7100003f 	cmp	w1, #0x0
   805b4:	54fffecc 	b.gt	8058c <strlcat+0x28>
   805b8:	8b20c063 	add	x3, x3, w0, sxtw
   805bc:	38236a9f 	strb	wzr, [x20, x3]
   805c0:	0b000040 	add	w0, w2, w0
   805c4:	a94153f3 	ldp	x19, x20, [sp, #16]
   805c8:	f94013f5 	ldr	x21, [sp, #32]
   805cc:	a8c37bfd 	ldp	x29, x30, [sp], #48
   805d0:	d65f03c0 	ret

00000000000805d4 <offset_calc>:
   805d4:	6b01001f 	cmp	w0, w1
   805d8:	1a9fa7e4 	cset	w4, lt  // lt = tstop
   805dc:	6b02001f 	cmp	w0, w2
   805e0:	1a9fb7e3 	cset	w3, ge  // ge = tcont
   805e4:	6a03009f 	tst	w4, w3
   805e8:	54000101 	b.ne	80608 <offset_calc+0x34>  // b.any
   805ec:	6b02001f 	cmp	w0, w2
   805f0:	1a9fa7e3 	cset	w3, lt  // lt = tstop
   805f4:	6b02003f 	cmp	w1, w2
   805f8:	1a9fd7e0 	cset	w0, gt
   805fc:	6a00007f 	tst	w3, w0
   80600:	54000061 	b.ne	8060c <offset_calc+0x38>  // b.any
   80604:	2a0103e0 	mov	w0, w1
   80608:	d65f03c0 	ret
   8060c:	2a0203e0 	mov	w0, w2
   80610:	17fffffe 	b	80608 <offset_calc+0x34>

0000000000080614 <digits_count>:
   80614:	52800002 	mov	w2, #0x0                   	// #0
   80618:	14000003 	b	80624 <digits_count+0x10>
   8061c:	11000442 	add	w2, w2, #0x1
   80620:	1ac10800 	udiv	w0, w0, w1
   80624:	35ffffc0 	cbnz	w0, 8061c <digits_count+0x8>
   80628:	34000062 	cbz	w2, 80634 <digits_count+0x20>
   8062c:	2a0203e0 	mov	w0, w2
   80630:	d65f03c0 	ret
   80634:	52800022 	mov	w2, #0x1                   	// #1
   80638:	17fffffd 	b	8062c <digits_count+0x18>

000000000008063c <unsigned_to_base>:
   8063c:	a9bc7bfd 	stp	x29, x30, [sp, #-64]!
   80640:	910003fd 	mov	x29, sp
   80644:	a90153f3 	stp	x19, x20, [sp, #16]
   80648:	a9025bf5 	stp	x21, x22, [sp, #32]
   8064c:	f9001bf7 	str	x23, [sp, #48]
   80650:	aa0003f5 	mov	x21, x0
   80654:	2a0103f6 	mov	w22, w1
   80658:	aa0203f3 	mov	x19, x2
   8065c:	2a0303f4 	mov	w20, w3
   80660:	2a0403f7 	mov	w23, w4
   80664:	2a0303e1 	mov	w1, w3
   80668:	2a0203e0 	mov	w0, w2
   8066c:	97ffffea 	bl	80614 <digits_count>
   80670:	34000536 	cbz	w22, 80714 <unsigned_to_base+0xd8>
   80674:	2a1703e2 	mov	w2, w23
   80678:	2a1603e1 	mov	w1, w22
   8067c:	97ffffd6 	bl	805d4 <offset_calc>
   80680:	52800024 	mov	w4, #0x1                   	// #1
   80684:	52800001 	mov	w1, #0x0                   	// #0
   80688:	14000011 	b	806cc <unsigned_to_base+0x90>
   8068c:	b202e7e2 	mov	x2, #0xcccccccccccccccc    	// #-3689348814741910324
   80690:	f29999a2 	movk	x2, #0xcccd
   80694:	9bc27c62 	umulh	x2, x3, x2
   80698:	d343fc42 	lsr	x2, x2, #3
   8069c:	8b020842 	add	x2, x2, x2, lsl #2
   806a0:	8b020046 	add	x6, x2, x2
   806a4:	cb060062 	sub	x2, x3, x6
   806a8:	12001c42 	and	w2, w2, #0xff
   806ac:	11018442 	add	w2, w2, #0x61
   806b0:	12001c42 	and	w2, w2, #0xff
   806b4:	93407c03 	sxtw	x3, w0
   806b8:	cb24c063 	sub	x3, x3, w4, sxtw
   806bc:	38236aa2 	strb	w2, [x21, x3]
   806c0:	9ac50a73 	udiv	x19, x19, x5
   806c4:	11000421 	add	w1, w1, #0x1
   806c8:	11000484 	add	w4, w4, #0x1
   806cc:	6b00009f 	cmp	w4, w0
   806d0:	5400014c 	b.gt	806f8 <unsigned_to_base+0xbc>
   806d4:	93407e85 	sxtw	x5, w20
   806d8:	9ac50a63 	udiv	x3, x19, x5
   806dc:	9b05cc63 	msub	x3, x3, x5, x19
   806e0:	f100247f 	cmp	x3, #0x9
   806e4:	54fffd48 	b.hi	8068c <unsigned_to_base+0x50>  // b.pmore
   806e8:	12001c62 	and	w2, w3, #0xff
   806ec:	1100c042 	add	w2, w2, #0x30
   806f0:	12001c42 	and	w2, w2, #0xff
   806f4:	17fffff0 	b	806b4 <unsigned_to_base+0x78>
   806f8:	3820cabf 	strb	wzr, [x21, w0, sxtw]
   806fc:	2a0103e0 	mov	w0, w1
   80700:	a94153f3 	ldp	x19, x20, [sp, #16]
   80704:	a9425bf5 	ldp	x21, x22, [sp, #32]
   80708:	f9401bf7 	ldr	x23, [sp, #48]
   8070c:	a8c47bfd 	ldp	x29, x30, [sp], #64
   80710:	d65f03c0 	ret
   80714:	2a1603e0 	mov	w0, w22
   80718:	17fffffa 	b	80700 <unsigned_to_base+0xc4>

000000000008071c <signed_to_base>:
   8071c:	a9bf7bfd 	stp	x29, x30, [sp, #-16]!
   80720:	910003fd 	mov	x29, sp
   80724:	37f800a2 	tbnz	w2, #31, 80738 <signed_to_base+0x1c>
   80728:	93407c42 	sxtw	x2, w2
   8072c:	97ffffc4 	bl	8063c <unsigned_to_base>
   80730:	a8c17bfd 	ldp	x29, x30, [sp], #16
   80734:	d65f03c0 	ret
   80738:	528005a5 	mov	w5, #0x2d                  	// #45
   8073c:	38001405 	strb	w5, [x0], #1
   80740:	4b0203e2 	neg	w2, w2
   80744:	51000484 	sub	w4, w4, #0x1
   80748:	93407c42 	sxtw	x2, w2
   8074c:	51000421 	sub	w1, w1, #0x1
   80750:	97ffffbb 	bl	8063c <unsigned_to_base>
   80754:	11000400 	add	w0, w0, #0x1
   80758:	17fffff6 	b	80730 <signed_to_base+0x14>

000000000008075c <vsnprintf>:
   8075c:	a9bb7bfd 	stp	x29, x30, [sp, #-80]!
   80760:	910003fd 	mov	x29, sp
   80764:	a90153f3 	stp	x19, x20, [sp, #16]
   80768:	a9025bf5 	stp	x21, x22, [sp, #32]
   8076c:	a90363f7 	stp	x23, x24, [sp, #48]
   80770:	aa0003f6 	mov	x22, x0
   80774:	2a0103f5 	mov	w21, w1
   80778:	aa0203f4 	mov	x20, x2
   8077c:	aa0303f8 	mov	x24, x3
   80780:	52800013 	mov	w19, #0x0                   	// #0
   80784:	510006a0 	sub	w0, w21, #0x1
   80788:	6b13001f 	cmp	w0, w19
   8078c:	54001740 	b.eq	80a74 <vsnprintf+0x318>  // b.none
   80790:	39400280 	ldrb	w0, [x20]
   80794:	34001700 	cbz	w0, 80a74 <vsnprintf+0x318>
   80798:	7100941f 	cmp	w0, #0x25
   8079c:	540000a0 	b.eq	807b0 <vsnprintf+0x54>  // b.none
   807a0:	3833cac0 	strb	w0, [x22, w19, sxtw]
   807a4:	91000694 	add	x20, x20, #0x1
   807a8:	11000673 	add	w19, w19, #0x1
   807ac:	17fffff6 	b	80784 <vsnprintf+0x28>
   807b0:	91000697 	add	x23, x20, #0x1
   807b4:	39400680 	ldrb	w0, [x20, #1]
   807b8:	71018c1f 	cmp	w0, #0x63
   807bc:	54000260 	b.eq	80808 <vsnprintf+0xac>  // b.none
   807c0:	7101cc1f 	cmp	w0, #0x73
   807c4:	540004e0 	b.eq	80860 <vsnprintf+0x104>  // b.none
   807c8:	7100941f 	cmp	w0, #0x25
   807cc:	540007c0 	b.eq	808c4 <vsnprintf+0x168>  // b.none
   807d0:	910123a1 	add	x1, x29, #0x48
   807d4:	aa1703e0 	mov	x0, x23
   807d8:	97ffff53 	bl	80524 <strtonum>
   807dc:	2a0003f4 	mov	w20, w0
   807e0:	f94027a0 	ldr	x0, [x29, #72]
   807e4:	39400000 	ldrb	w0, [x0]
   807e8:	7101c01f 	cmp	w0, #0x70
   807ec:	54000fa0 	b.eq	809e0 <vsnprintf+0x284>  // b.none
   807f0:	7101e01f 	cmp	w0, #0x78
   807f4:	54000700 	b.eq	808d4 <vsnprintf+0x178>  // b.none
   807f8:	7101901f 	cmp	w0, #0x64
   807fc:	54000b60 	b.eq	80968 <vsnprintf+0x20c>  // b.none
   80800:	aa1703f4 	mov	x20, x23
   80804:	17ffffe0 	b	80784 <vsnprintf+0x28>
   80808:	b9401b01 	ldr	w1, [x24, #24]
   8080c:	f9400300 	ldr	x0, [x24]
   80810:	37f80121 	tbnz	w1, #31, 80834 <vsnprintf+0xd8>
   80814:	91002c01 	add	x1, x0, #0xb
   80818:	927df021 	and	x1, x1, #0xfffffffffffffff8
   8081c:	f9000301 	str	x1, [x24]
   80820:	39400000 	ldrb	w0, [x0]
   80824:	3833cac0 	strb	w0, [x22, w19, sxtw]
   80828:	91000a94 	add	x20, x20, #0x2
   8082c:	11000673 	add	w19, w19, #0x1
   80830:	17ffffd5 	b	80784 <vsnprintf+0x28>
   80834:	11002022 	add	w2, w1, #0x8
   80838:	b9001b02 	str	w2, [x24, #24]
   8083c:	7100005f 	cmp	w2, #0x0
   80840:	540000ad 	b.le	80854 <vsnprintf+0xf8>
   80844:	91002c01 	add	x1, x0, #0xb
   80848:	927df021 	and	x1, x1, #0xfffffffffffffff8
   8084c:	f9000301 	str	x1, [x24]
   80850:	17fffff4 	b	80820 <vsnprintf+0xc4>
   80854:	f9400700 	ldr	x0, [x24, #8]
   80858:	8b21c000 	add	x0, x0, w1, sxtw
   8085c:	17fffff1 	b	80820 <vsnprintf+0xc4>
   80860:	3833cadf 	strb	wzr, [x22, w19, sxtw]
   80864:	b9401b01 	ldr	w1, [x24, #24]
   80868:	f9400300 	ldr	x0, [x24]
   8086c:	37f80161 	tbnz	w1, #31, 80898 <vsnprintf+0x13c>
   80870:	91003c01 	add	x1, x0, #0xf
   80874:	927df021 	and	x1, x1, #0xfffffffffffffff8
   80878:	f9000301 	str	x1, [x24]
   8087c:	2a1503e2 	mov	w2, w21
   80880:	f9400001 	ldr	x1, [x0]
   80884:	aa1603e0 	mov	x0, x22
   80888:	97ffff37 	bl	80564 <strlcat>
   8088c:	2a0003f3 	mov	w19, w0
   80890:	91000a94 	add	x20, x20, #0x2
   80894:	17ffffbc 	b	80784 <vsnprintf+0x28>
   80898:	11002022 	add	w2, w1, #0x8
   8089c:	b9001b02 	str	w2, [x24, #24]
   808a0:	7100005f 	cmp	w2, #0x0
   808a4:	540000ad 	b.le	808b8 <vsnprintf+0x15c>
   808a8:	91003c01 	add	x1, x0, #0xf
   808ac:	927df021 	and	x1, x1, #0xfffffffffffffff8
   808b0:	f9000301 	str	x1, [x24]
   808b4:	17fffff2 	b	8087c <vsnprintf+0x120>
   808b8:	f9400700 	ldr	x0, [x24, #8]
   808bc:	8b21c000 	add	x0, x0, w1, sxtw
   808c0:	17ffffef 	b	8087c <vsnprintf+0x120>
   808c4:	3833cac0 	strb	w0, [x22, w19, sxtw]
   808c8:	91000a94 	add	x20, x20, #0x2
   808cc:	11000673 	add	w19, w19, #0x1
   808d0:	17ffffad 	b	80784 <vsnprintf+0x28>
   808d4:	3833cadf 	strb	wzr, [x22, w19, sxtw]
   808d8:	2a1503e2 	mov	w2, w21
   808dc:	90000001 	adrp	x1, 80000 <_start>
   808e0:	913bc021 	add	x1, x1, #0xef0
   808e4:	aa1603e0 	mov	x0, x22
   808e8:	97ffff1f 	bl	80564 <strlcat>
   808ec:	2a0003f3 	mov	w19, w0
   808f0:	8b20c2c0 	add	x0, x22, w0, sxtw
   808f4:	4b1302a1 	sub	w1, w21, w19
   808f8:	51000421 	sub	w1, w1, #0x1
   808fc:	b9401b03 	ldr	w3, [x24, #24]
   80900:	f9400302 	ldr	x2, [x24]
   80904:	37f801c3 	tbnz	w3, #31, 8093c <vsnprintf+0x1e0>
   80908:	91002c43 	add	x3, x2, #0xb
   8090c:	927df063 	and	x3, x3, #0xfffffffffffffff8
   80910:	f9000303 	str	x3, [x24]
   80914:	51000a84 	sub	w4, w20, #0x2
   80918:	52800203 	mov	w3, #0x10                  	// #16
   8091c:	b9800042 	ldrsw	x2, [x2]
   80920:	97ffff47 	bl	8063c <unsigned_to_base>
   80924:	0b000273 	add	w19, w19, w0
   80928:	f94027b4 	ldr	x20, [x29, #72]
   8092c:	cb170294 	sub	x20, x20, x23
   80930:	91000694 	add	x20, x20, #0x1
   80934:	8b1402f4 	add	x20, x23, x20
   80938:	17ffff93 	b	80784 <vsnprintf+0x28>
   8093c:	11002064 	add	w4, w3, #0x8
   80940:	b9001b04 	str	w4, [x24, #24]
   80944:	7100009f 	cmp	w4, #0x0
   80948:	540000ad 	b.le	8095c <vsnprintf+0x200>
   8094c:	91002c43 	add	x3, x2, #0xb
   80950:	927df063 	and	x3, x3, #0xfffffffffffffff8
   80954:	f9000303 	str	x3, [x24]
   80958:	17ffffef 	b	80914 <vsnprintf+0x1b8>
   8095c:	f9400702 	ldr	x2, [x24, #8]
   80960:	8b23c042 	add	x2, x2, w3, sxtw
   80964:	17ffffec 	b	80914 <vsnprintf+0x1b8>
   80968:	8b33c2c0 	add	x0, x22, w19, sxtw
   8096c:	4b1302a1 	sub	w1, w21, w19
   80970:	51000421 	sub	w1, w1, #0x1
   80974:	b9401b03 	ldr	w3, [x24, #24]
   80978:	f9400302 	ldr	x2, [x24]
   8097c:	37f801c3 	tbnz	w3, #31, 809b4 <vsnprintf+0x258>
   80980:	91002c43 	add	x3, x2, #0xb
   80984:	927df063 	and	x3, x3, #0xfffffffffffffff8
   80988:	f9000303 	str	x3, [x24]
   8098c:	2a1403e4 	mov	w4, w20
   80990:	52800143 	mov	w3, #0xa                   	// #10
   80994:	b9400042 	ldr	w2, [x2]
   80998:	97ffff61 	bl	8071c <signed_to_base>
   8099c:	0b000273 	add	w19, w19, w0
   809a0:	f94027b4 	ldr	x20, [x29, #72]
   809a4:	cb170294 	sub	x20, x20, x23
   809a8:	91000694 	add	x20, x20, #0x1
   809ac:	8b1402f4 	add	x20, x23, x20
   809b0:	17ffff75 	b	80784 <vsnprintf+0x28>
   809b4:	11002064 	add	w4, w3, #0x8
   809b8:	b9001b04 	str	w4, [x24, #24]
   809bc:	7100009f 	cmp	w4, #0x0
   809c0:	540000ad 	b.le	809d4 <vsnprintf+0x278>
   809c4:	91002c43 	add	x3, x2, #0xb
   809c8:	927df063 	and	x3, x3, #0xfffffffffffffff8
   809cc:	f9000303 	str	x3, [x24]
   809d0:	17ffffef 	b	8098c <vsnprintf+0x230>
   809d4:	f9400702 	ldr	x2, [x24, #8]
   809d8:	8b23c042 	add	x2, x2, w3, sxtw
   809dc:	17ffffec 	b	8098c <vsnprintf+0x230>
   809e0:	3833cadf 	strb	wzr, [x22, w19, sxtw]
   809e4:	2a1503e2 	mov	w2, w21
   809e8:	90000001 	adrp	x1, 80000 <_start>
   809ec:	913bc021 	add	x1, x1, #0xef0
   809f0:	aa1603e0 	mov	x0, x22
   809f4:	97fffedc 	bl	80564 <strlcat>
   809f8:	2a0003f3 	mov	w19, w0
   809fc:	8b20c2c0 	add	x0, x22, w0, sxtw
   80a00:	4b1302a1 	sub	w1, w21, w19
   80a04:	51000421 	sub	w1, w1, #0x1
   80a08:	b9401b03 	ldr	w3, [x24, #24]
   80a0c:	f9400302 	ldr	x2, [x24]
   80a10:	37f801c3 	tbnz	w3, #31, 80a48 <vsnprintf+0x2ec>
   80a14:	91002c43 	add	x3, x2, #0xb
   80a18:	927df063 	and	x3, x3, #0xfffffffffffffff8
   80a1c:	f9000303 	str	x3, [x24]
   80a20:	2a1403e4 	mov	w4, w20
   80a24:	52800203 	mov	w3, #0x10                  	// #16
   80a28:	b9800042 	ldrsw	x2, [x2]
   80a2c:	97ffff04 	bl	8063c <unsigned_to_base>
   80a30:	0b000273 	add	w19, w19, w0
   80a34:	f94027b4 	ldr	x20, [x29, #72]
   80a38:	cb170294 	sub	x20, x20, x23
   80a3c:	91000694 	add	x20, x20, #0x1
   80a40:	8b1402f4 	add	x20, x23, x20
   80a44:	17ffff50 	b	80784 <vsnprintf+0x28>
   80a48:	11002064 	add	w4, w3, #0x8
   80a4c:	b9001b04 	str	w4, [x24, #24]
   80a50:	7100009f 	cmp	w4, #0x0
   80a54:	540000ad 	b.le	80a68 <vsnprintf+0x30c>
   80a58:	91002c43 	add	x3, x2, #0xb
   80a5c:	927df063 	and	x3, x3, #0xfffffffffffffff8
   80a60:	f9000303 	str	x3, [x24]
   80a64:	17ffffef 	b	80a20 <vsnprintf+0x2c4>
   80a68:	f9400702 	ldr	x2, [x24, #8]
   80a6c:	8b23c042 	add	x2, x2, w3, sxtw
   80a70:	17ffffec 	b	80a20 <vsnprintf+0x2c4>
   80a74:	3833cadf 	strb	wzr, [x22, w19, sxtw]
   80a78:	2a1303e0 	mov	w0, w19
   80a7c:	a94153f3 	ldp	x19, x20, [sp, #16]
   80a80:	a9425bf5 	ldp	x21, x22, [sp, #32]
   80a84:	a94363f7 	ldp	x23, x24, [sp, #48]
   80a88:	a8c57bfd 	ldp	x29, x30, [sp], #80
   80a8c:	d65f03c0 	ret

0000000000080a90 <snprintf>:
   80a90:	a9b07bfd 	stp	x29, x30, [sp, #-256]!
   80a94:	910003fd 	mov	x29, sp
   80a98:	f9006fa3 	str	x3, [x29, #216]
   80a9c:	f90073a4 	str	x4, [x29, #224]
   80aa0:	f90077a5 	str	x5, [x29, #232]
   80aa4:	f9007ba6 	str	x6, [x29, #240]
   80aa8:	f9007fa7 	str	x7, [x29, #248]
   80aac:	3d8017a0 	str	q0, [x29, #80]
   80ab0:	3d801ba1 	str	q1, [x29, #96]
   80ab4:	3d801fa2 	str	q2, [x29, #112]
   80ab8:	3d8023a3 	str	q3, [x29, #128]
   80abc:	3d8027a4 	str	q4, [x29, #144]
   80ac0:	3d802ba5 	str	q5, [x29, #160]
   80ac4:	3d802fa6 	str	q6, [x29, #176]
   80ac8:	3d8033a7 	str	q7, [x29, #192]
   80acc:	910403a3 	add	x3, x29, #0x100
   80ad0:	f9001ba3 	str	x3, [x29, #48]
   80ad4:	f9001fa3 	str	x3, [x29, #56]
   80ad8:	910343a3 	add	x3, x29, #0xd0
   80adc:	f90023a3 	str	x3, [x29, #64]
   80ae0:	128004e3 	mov	w3, #0xffffffd8            	// #-40
   80ae4:	b9004ba3 	str	w3, [x29, #72]
   80ae8:	12800fe3 	mov	w3, #0xffffff80            	// #-128
   80aec:	b9004fa3 	str	w3, [x29, #76]
   80af0:	a94317a4 	ldp	x4, x5, [x29, #48]
   80af4:	a90117a4 	stp	x4, x5, [x29, #16]
   80af8:	a94417a4 	ldp	x4, x5, [x29, #64]
   80afc:	a90217a4 	stp	x4, x5, [x29, #32]
   80b00:	910043a3 	add	x3, x29, #0x10
   80b04:	97ffff16 	bl	8075c <vsnprintf>
   80b08:	a8d07bfd 	ldp	x29, x30, [sp], #256
   80b0c:	d65f03c0 	ret

0000000000080b10 <printf>:
   80b10:	d11483ff 	sub	sp, sp, #0x520
   80b14:	a9007bfd 	stp	x29, x30, [sp]
   80b18:	910003fd 	mov	x29, sp
   80b1c:	a90153f3 	stp	x19, x20, [sp, #16]
   80b20:	f90277a1 	str	x1, [x29, #1256]
   80b24:	f9027ba2 	str	x2, [x29, #1264]
   80b28:	f9027fa3 	str	x3, [x29, #1272]
   80b2c:	f90283a4 	str	x4, [x29, #1280]
   80b30:	f90287a5 	str	x5, [x29, #1288]
   80b34:	f9028ba6 	str	x6, [x29, #1296]
   80b38:	f9028fa7 	str	x7, [x29, #1304]
   80b3c:	911003a1 	add	x1, x29, #0x400
   80b40:	3d801820 	str	q0, [x1, #96]
   80b44:	3d801c21 	str	q1, [x1, #112]
   80b48:	3d802022 	str	q2, [x1, #128]
   80b4c:	3d802423 	str	q3, [x1, #144]
   80b50:	3d802824 	str	q4, [x1, #160]
   80b54:	3d802c25 	str	q5, [x1, #176]
   80b58:	3d803026 	str	q6, [x1, #192]
   80b5c:	3d803427 	str	q7, [x1, #208]
   80b60:	911483a1 	add	x1, x29, #0x520
   80b64:	f90023a1 	str	x1, [x29, #64]
   80b68:	f90027a1 	str	x1, [x29, #72]
   80b6c:	911383a1 	add	x1, x29, #0x4e0
   80b70:	f9002ba1 	str	x1, [x29, #80]
   80b74:	128006e1 	mov	w1, #0xffffffc8            	// #-56
   80b78:	b9005ba1 	str	w1, [x29, #88]
   80b7c:	12800fe1 	mov	w1, #0xffffff80            	// #-128
   80b80:	b9005fa1 	str	w1, [x29, #92]
   80b84:	a9440fa2 	ldp	x2, x3, [x29, #64]
   80b88:	a9020fa2 	stp	x2, x3, [x29, #32]
   80b8c:	a9450fa2 	ldp	x2, x3, [x29, #80]
   80b90:	a9030fa2 	stp	x2, x3, [x29, #48]
   80b94:	910083a3 	add	x3, x29, #0x20
   80b98:	aa0003e2 	mov	x2, x0
   80b9c:	52808001 	mov	w1, #0x400                 	// #1024
   80ba0:	910183a0 	add	x0, x29, #0x60
   80ba4:	97fffeee 	bl	8075c <vsnprintf>
   80ba8:	2a0003f4 	mov	w20, w0
   80bac:	52800013 	mov	w19, #0x0                   	// #0
   80bb0:	14000005 	b	80bc4 <printf+0xb4>
   80bb4:	910183a0 	add	x0, x29, #0x60
   80bb8:	3873c800 	ldrb	w0, [x0, w19, sxtw]
   80bbc:	94000068 	bl	80d5c <uart_putchar>
   80bc0:	11000673 	add	w19, w19, #0x1
   80bc4:	6b14027f 	cmp	w19, w20
   80bc8:	54ffff6d 	b.le	80bb4 <printf+0xa4>
   80bcc:	2a1303e0 	mov	w0, w19
   80bd0:	a94153f3 	ldp	x19, x20, [sp, #16]
   80bd4:	a9407bfd 	ldp	x29, x30, [sp]
   80bd8:	911483ff 	add	sp, sp, #0x520
   80bdc:	d65f03c0 	ret

0000000000080be0 <backtrace>:
   80be0:	aa0003e6 	mov	x6, x0
   80be4:	aa1d03e3 	mov	x3, x29
   80be8:	52800000 	mov	w0, #0x0                   	// #0
   80bec:	1400000e 	b	80c24 <backtrace+0x44>
   80bf0:	93407c02 	sxtw	x2, w0
   80bf4:	d2800304 	mov	x4, #0x18                  	// #24
   80bf8:	9b047c42 	mul	x2, x2, x4
   80bfc:	8b0200c5 	add	x5, x6, x2
   80c00:	90000004 	adrp	x4, 80000 <_start>
   80c04:	913be084 	add	x4, x4, #0xef8
   80c08:	f82268c4 	str	x4, [x6, x2]
   80c0c:	f9400462 	ldr	x2, [x3, #8]
   80c10:	d1001042 	sub	x2, x2, #0x4
   80c14:	f90004a2 	str	x2, [x5, #8]
   80c18:	b90010bf 	str	wzr, [x5, #16]
   80c1c:	f9400063 	ldr	x3, [x3]
   80c20:	11000400 	add	w0, w0, #0x1
   80c24:	6b01001f 	cmp	w0, w1
   80c28:	5400006a 	b.ge	80c34 <backtrace+0x54>  // b.tcont
   80c2c:	f9400062 	ldr	x2, [x3]
   80c30:	b5fffe02 	cbnz	x2, 80bf0 <backtrace+0x10>
   80c34:	d65f03c0 	ret

0000000000080c38 <print_frames>:
   80c38:	a9bd7bfd 	stp	x29, x30, [sp, #-48]!
   80c3c:	910003fd 	mov	x29, sp
   80c40:	a90153f3 	stp	x19, x20, [sp, #16]
   80c44:	f90013f5 	str	x21, [sp, #32]
   80c48:	aa0003f4 	mov	x20, x0
   80c4c:	2a0103f5 	mov	w21, w1
   80c50:	52800013 	mov	w19, #0x0                   	// #0
   80c54:	1400000d 	b	80c88 <print_frames+0x50>
   80c58:	93407e60 	sxtw	x0, w19
   80c5c:	d2800301 	mov	x1, #0x18                  	// #24
   80c60:	9b017c00 	mul	x0, x0, x1
   80c64:	8b000281 	add	x1, x20, x0
   80c68:	b9401024 	ldr	w4, [x1, #16]
   80c6c:	f8606a83 	ldr	x3, [x20, x0]
   80c70:	b9400822 	ldr	w2, [x1, #8]
   80c74:	2a1303e1 	mov	w1, w19
   80c78:	90000000 	adrp	x0, 80000 <_start>
   80c7c:	913c0000 	add	x0, x0, #0xf00
   80c80:	97ffffa4 	bl	80b10 <printf>
   80c84:	11000673 	add	w19, w19, #0x1
   80c88:	6b15027f 	cmp	w19, w21
   80c8c:	54fffe6b 	b.lt	80c58 <print_frames+0x20>  // b.tstop
   80c90:	a94153f3 	ldp	x19, x20, [sp, #16]
   80c94:	f94013f5 	ldr	x21, [sp, #32]
   80c98:	a8c37bfd 	ldp	x29, x30, [sp], #48
   80c9c:	d65f03c0 	ret

0000000000080ca0 <print_backtrace>:
   80ca0:	a9b07bfd 	stp	x29, x30, [sp, #-256]!
   80ca4:	910003fd 	mov	x29, sp
   80ca8:	52800141 	mov	w1, #0xa                   	// #10
   80cac:	910043a0 	add	x0, x29, #0x10
   80cb0:	97ffffcc 	bl	80be0 <backtrace>
   80cb4:	2a0003e1 	mov	w1, w0
   80cb8:	910043a0 	add	x0, x29, #0x10
   80cbc:	97ffffdf 	bl	80c38 <print_frames>
   80cc0:	a8d07bfd 	ldp	x29, x30, [sp], #256
   80cc4:	d65f03c0 	ret

0000000000080cc8 <uart_init>:
   80cc8:	a9bf7bfd 	stp	x29, x30, [sp, #-16]!
   80ccc:	910003fd 	mov	x29, sp
   80cd0:	52800041 	mov	w1, #0x2                   	// #2
   80cd4:	528001c0 	mov	w0, #0xe                   	// #14
   80cd8:	97fffd29 	bl	8017c <gpio_set_function>
   80cdc:	52800041 	mov	w1, #0x2                   	// #2
   80ce0:	528001e0 	mov	w0, #0xf                   	// #15
   80ce4:	97fffd26 	bl	8017c <gpio_set_function>
   80ce8:	d28a0081 	mov	x1, #0x5004                	// #20484
   80cec:	f2a7e421 	movk	x1, #0x3f21, lsl #16
   80cf0:	b9400020 	ldr	w0, [x1]
   80cf4:	32000000 	orr	w0, w0, #0x1
   80cf8:	b9000020 	str	w0, [x1]
   80cfc:	d28a0800 	mov	x0, #0x5040                	// #20544
   80d00:	f2a7e420 	movk	x0, #0x3f21, lsl #16
   80d04:	b900041f 	str	wzr, [x0, #4]
   80d08:	b900201f 	str	wzr, [x0, #32]
   80d0c:	52800061 	mov	w1, #0x3                   	// #3
   80d10:	b9000c01 	str	w1, [x0, #12]
   80d14:	b900101f 	str	wzr, [x0, #16]
   80d18:	b900041f 	str	wzr, [x0, #4]
   80d1c:	528018c2 	mov	w2, #0xc6                  	// #198
   80d20:	b9000802 	str	w2, [x0, #8]
   80d24:	528021c2 	mov	w2, #0x10e                 	// #270
   80d28:	b9002802 	str	w2, [x0, #40]
   80d2c:	b9002001 	str	w1, [x0, #32]
   80d30:	a8c17bfd 	ldp	x29, x30, [sp], #16
   80d34:	d65f03c0 	ret

0000000000080d38 <uart_getchar>:
   80d38:	d28a0800 	mov	x0, #0x5040                	// #20544
   80d3c:	f2a7e420 	movk	x0, #0x3f21, lsl #16
   80d40:	b9401400 	ldr	w0, [x0, #20]
   80d44:	3607ffa0 	tbz	w0, #0, 80d38 <uart_getchar>
   80d48:	d28a0800 	mov	x0, #0x5040                	// #20544
   80d4c:	f2a7e420 	movk	x0, #0x3f21, lsl #16
   80d50:	b9400000 	ldr	w0, [x0]
   80d54:	12001c00 	and	w0, w0, #0xff
   80d58:	d65f03c0 	ret

0000000000080d5c <uart_putchar>:
   80d5c:	a9be7bfd 	stp	x29, x30, [sp, #-32]!
   80d60:	910003fd 	mov	x29, sp
   80d64:	f9000bf3 	str	x19, [sp, #16]
   80d68:	2a0003f3 	mov	w19, w0
   80d6c:	7100281f 	cmp	w0, #0xa
   80d70:	54000180 	b.eq	80da0 <uart_putchar+0x44>  // b.none
   80d74:	d28a0800 	mov	x0, #0x5040                	// #20544
   80d78:	f2a7e420 	movk	x0, #0x3f21, lsl #16
   80d7c:	b9401400 	ldr	w0, [x0, #20]
   80d80:	362fffa0 	tbz	w0, #5, 80d74 <uart_putchar+0x18>
   80d84:	d28a0800 	mov	x0, #0x5040                	// #20544
   80d88:	f2a7e420 	movk	x0, #0x3f21, lsl #16
   80d8c:	b9000013 	str	w19, [x0]
   80d90:	2a1303e0 	mov	w0, w19
   80d94:	f9400bf3 	ldr	x19, [sp, #16]
   80d98:	a8c27bfd 	ldp	x29, x30, [sp], #32
   80d9c:	d65f03c0 	ret
   80da0:	528001a0 	mov	w0, #0xd                   	// #13
   80da4:	97ffffee 	bl	80d5c <uart_putchar>
   80da8:	17fffff3 	b	80d74 <uart_putchar+0x18>

0000000000080dac <uart_flush>:
   80dac:	d28a0800 	mov	x0, #0x5040                	// #20544
   80db0:	f2a7e420 	movk	x0, #0x3f21, lsl #16
   80db4:	b9401400 	ldr	w0, [x0, #20]
   80db8:	362fffa0 	tbz	w0, #5, 80dac <uart_flush>
   80dbc:	d65f03c0 	ret

0000000000080dc0 <uart_haschar>:
   80dc0:	d28a0800 	mov	x0, #0x5040                	// #20544
   80dc4:	f2a7e420 	movk	x0, #0x3f21, lsl #16
   80dc8:	b9401400 	ldr	w0, [x0, #20]
   80dcc:	12000000 	and	w0, w0, #0x1
   80dd0:	d65f03c0 	ret

0000000000080dd4 <abs>:
   80dd4:	7100001f 	cmp	w0, #0x0
   80dd8:	5a80a400 	cneg	w0, w0, lt  // lt = tstop
   80ddc:	d65f03c0 	ret

0000000000080de0 <factorial>:
   80de0:	7100041f 	cmp	w0, #0x1
   80de4:	5400006c 	b.gt	80df0 <factorial+0x10>
   80de8:	52800020 	mov	w0, #0x1                   	// #1
   80dec:	d65f03c0 	ret
   80df0:	a9be7bfd 	stp	x29, x30, [sp, #-32]!
   80df4:	910003fd 	mov	x29, sp
   80df8:	f9000bf3 	str	x19, [sp, #16]
   80dfc:	2a0003f3 	mov	w19, w0
   80e00:	51000400 	sub	w0, w0, #0x1
   80e04:	97fffff7 	bl	80de0 <factorial>
   80e08:	1b137c00 	mul	w0, w0, w19
   80e0c:	f9400bf3 	ldr	x19, [sp, #16]
   80e10:	a8c27bfd 	ldp	x29, x30, [sp], #32
   80e14:	d65f03c0 	ret

0000000000080e18 <make_array>:
   80e18:	a9bd7bfd 	stp	x29, x30, [sp, #-48]!
   80e1c:	910003fd 	mov	x29, sp
   80e20:	52800020 	mov	w0, #0x1                   	// #1
   80e24:	b9001ba0 	str	w0, [x29, #24]
   80e28:	52800000 	mov	w0, #0x0                   	// #0
   80e2c:	14000006 	b	80e44 <make_array+0x2c>
   80e30:	910063a2 	add	x2, x29, #0x18
   80e34:	b860d841 	ldr	w1, [x2, w0, sxtw #2]
   80e38:	11000400 	add	w0, w0, #0x1
   80e3c:	11000821 	add	w1, w1, #0x2
   80e40:	b820d841 	str	w1, [x2, w0, sxtw #2]
   80e44:	7100101f 	cmp	w0, #0x4
   80e48:	54ffff4d 	b.le	80e30 <make_array+0x18>
   80e4c:	b94027a0 	ldr	w0, [x29, #36]
   80e50:	97ffffe1 	bl	80dd4 <abs>
   80e54:	a8c37bfd 	ldp	x29, x30, [sp], #48
   80e58:	d65f03c0 	ret

0000000000080e5c <diff>:
   80e5c:	a9bf7bfd 	stp	x29, x30, [sp, #-16]!
   80e60:	910003fd 	mov	x29, sp
   80e64:	4b010000 	sub	w0, w0, w1
   80e68:	97ffffdb 	bl	80dd4 <abs>
   80e6c:	a8c17bfd 	ldp	x29, x30, [sp], #16
   80e70:	d65f03c0 	ret

0000000000080e74 <submain>:
   80e74:	a9be7bfd 	stp	x29, x30, [sp, #-32]!
   80e78:	910003fd 	mov	x29, sp
   80e7c:	a90153f3 	stp	x19, x20, [sp, #16]
   80e80:	52800d61 	mov	w1, #0x6b                  	// #107
   80e84:	52800420 	mov	w0, #0x21                  	// #33
   80e88:	97fffff5 	bl	80e5c <diff>
   80e8c:	2a0003f3 	mov	w19, w0
   80e90:	528000e0 	mov	w0, #0x7                   	// #7
   80e94:	97ffffd3 	bl	80de0 <factorial>
   80e98:	2a0003f4 	mov	w20, w0
   80e9c:	97ffffdf 	bl	80e18 <make_array>
   80ea0:	0b140273 	add	w19, w19, w20
   80ea4:	0b000260 	add	w0, w19, w0
   80ea8:	a94153f3 	ldp	x19, x20, [sp, #16]
   80eac:	a8c27bfd 	ldp	x29, x30, [sp], #32
   80eb0:	d65f03c0 	ret

0000000000080eb4 <main>:
   80eb4:	a9bf7bfd 	stp	x29, x30, [sp, #-16]!
   80eb8:	910003fd 	mov	x29, sp
   80ebc:	97fffcac 	bl	8016c <gpio_init>
   80ec0:	97fffd13 	bl	8030c <timer_init>
   80ec4:	97ffff81 	bl	80cc8 <uart_init>
   80ec8:	52800280 	mov	w0, #0x14                  	// #20
   80ecc:	97fffce1 	bl	80250 <gpio_set_input>
   80ed0:	90000000 	adrp	x0, 80000 <_start>
   80ed4:	913c6000 	add	x0, x0, #0xf18
   80ed8:	97ffff0e 	bl	80b10 <printf>
   80edc:	97ffff71 	bl	80ca0 <print_backtrace>
   80ee0:	528000a0 	mov	w0, #0x5                   	// #5
   80ee4:	97fffd2a 	bl	8038c <timer_delay>
   80ee8:	17fffffa 	b	80ed0 <main+0x1c>

Disassembly of section .rodata:

0000000000080ef0 <__bss_start__-0x38>:
   80ef0:	00007830 	.word	0x00007830
   80ef4:	00000000 	.word	0x00000000
   80ef8:	003f3f3f 	.word	0x003f3f3f
   80efc:	00000000 	.word	0x00000000
   80f00:	20642523 	.word	0x20642523
   80f04:	61207825 	.word	0x61207825
   80f08:	73252074 	.word	0x73252074
   80f0c:	0a64252b 	.word	0x0a64252b
	...
   80f18:	6d6f7266 	.word	0x6d6f7266
   80f1c:	69616d20 	.word	0x69616d20
   80f20:	0a29286e 	.word	0x0a29286e
   80f24:	00000000 	.word	0x00000000

Disassembly of section .bss:

0000000000080f28 <gpio_register>:
	...

0000000000080f30 <registers>:
	...

Disassembly of section .debug_info:

0000000000000000 <.debug_info>:
       0:	0000009d 	.inst	0x0000009d ; undefined
       4:	00000004 	.inst	0x00000004 ; undefined
       8:	01080000 	.inst	0x01080000 ; undefined
       c:	00000052 	.inst	0x00000052 ; undefined
      10:	0000490c 	.inst	0x0000490c ; undefined
      14:	00001400 	.inst	0x00001400 ; undefined
      18:	08001000 	stxrb	w0, w0, [x0]
      1c:	00000000 	.inst	0x00000000 ; undefined
      20:	00003800 	.inst	0x00003800 ; undefined
	...
      2c:	00c50200 	.inst	0x00c50200 ; undefined
      30:	02010000 	.inst	0x02010000 ; undefined
      34:	00000038 	.inst	0x00000038 ; undefined
      38:	69050403 	.inst	0x69050403 ; undefined
      3c:	0200746e 	.inst	0x0200746e ; undefined
      40:	00000000 	.inst	0x00000000 ; undefined
      44:	00380201 	.inst	0x00380201 ; NYI
      48:	d3040000 	.inst	0xd3040000 ; undefined
      4c:	01000000 	.inst	0x01000000 ; undefined
      50:	0800100a 	stxrb	w0, w10, [x0]
      54:	00000000 	.inst	0x00000000 ; undefined
      58:	00003800 	.inst	0x00003800 ; undefined
      5c:	00000000 	.inst	0x00000000 ; undefined
      60:	8f9c0100 	.inst	0x8f9c0100 ; undefined
      64:	05000000 	orr	z0.s, z0.s, #0x1
      68:	00737362 	.inst	0x00737362 ; undefined
      6c:	008f0c01 	.inst	0x008f0c01 ; undefined
      70:	00000000 	.inst	0x00000000 ; undefined
      74:	0c060000 	.inst	0x0c060000 ; undefined
      78:	01000000 	.inst	0x01000000 ; undefined
      7c:	00008f0d 	.inst	0x00008f0d ; undefined
      80:	00400700 	.inst	0x00400700 ; undefined
      84:	00000008 	.inst	0x00000008 ; undefined
      88:	00950000 	.inst	0x00950000 ; undefined
      8c:	08000000 	stxrb	w0, w0, [x0]
      90:	00003808 	.inst	0x00003808 ; undefined
      94:	09780900 	.inst	0x09780900 ; undefined
      98:	09780000 	.inst	0x09780000 ; undefined
      9c:	04010000 	sub	z0.b, p0/m, z0.b, z0.b
      a0:	0006c500 	.inst	0x0006c500 ; undefined
      a4:	8b000400 	add	x0, x0, x0, lsl #1
      a8:	08000000 	stxrb	w0, w0, [x0]
      ac:	00028201 	.inst	0x00028201 ; undefined
      b0:	030b0c00 	.inst	0x030b0c00 ; undefined
      b4:	00140000 	.inst	0x00140000 ; undefined
      b8:	00480000 	.inst	0x00480000 ; undefined
      bc:	00000008 	.inst	0x00000008 ; undefined
      c0:	02c40000 	.inst	0x02c40000 ; undefined
      c4:	00000000 	.inst	0x00000000 ; undefined
      c8:	00420000 	.inst	0x00420000 ; undefined
      cc:	07020000 	.inst	0x07020000 ; undefined
      d0:	00018b04 	.inst	0x00018b04 ; undefined
      d4:	8b180200 	add	x0, x16, x24
      d8:	03000001 	.inst	0x03000001 ; undefined
      dc:	0000042d 	.inst	0x0000042d ; undefined
      e0:	04950300 	udiv	z0.s, p0/m, z0.s, z24.s
      e4:	03000000 	.inst	0x03000000 ; undefined
      e8:	0000049f 	.inst	0x0000049f ; undefined
      ec:	04a90301 	add	z1.s, z24.s, z9.s
      f0:	03020000 	.inst	0x03020000 ; undefined
      f4:	000004b3 	.inst	0x000004b3 ; undefined
      f8:	04bd0303 	add	z3.s, z24.s, z29.s
      fc:	03040000 	.inst	0x03040000 ; undefined
     100:	000004c7 	.inst	0x000004c7 ; undefined
     104:	04d10305 	.inst	0x04d10305 ; undefined
     108:	03060000 	.inst	0x03060000 ; undefined
     10c:	000004db 	.inst	0x000004db ; undefined
     110:	04e50307 	add	z7.d, z24.d, z5.d
     114:	03080000 	.inst	0x03080000 ; undefined
     118:	000004ef 	.inst	0x000004ef ; undefined
     11c:	034a0309 	.inst	0x034a0309 ; undefined
     120:	030a0000 	.inst	0x030a0000 ; undefined
     124:	00000355 	.inst	0x00000355 ; undefined
     128:	0360030b 	.inst	0x0360030b ; undefined
     12c:	030c0000 	.inst	0x030c0000 ; undefined
     130:	0000036b 	.inst	0x0000036b ; undefined
     134:	0376030d 	.inst	0x0376030d ; undefined
     138:	030e0000 	.inst	0x030e0000 ; undefined
     13c:	00000381 	.inst	0x00000381 ; undefined
     140:	038c030f 	.inst	0x038c030f ; undefined
     144:	03100000 	.inst	0x03100000 ; undefined
     148:	00000397 	.inst	0x00000397 ; undefined
     14c:	03a20311 	.inst	0x03a20311 ; undefined
     150:	03120000 	.inst	0x03120000 ; undefined
     154:	000003ad 	.inst	0x000003ad ; undefined
     158:	05030313 	orr	z19.d, z19.d, #0x1ffffff00000000
     15c:	03140000 	.inst	0x03140000 ; undefined
     160:	0000050e 	.inst	0x0000050e ; undefined
     164:	05190315 	mov	z21.b, p9/z, #24
     168:	03160000 	.inst	0x03160000 ; undefined
     16c:	00000524 	.inst	0x00000524 ; undefined
     170:	052f0317 	ext	z23.b, z23.b, z24.b, #120
     174:	03180000 	.inst	0x03180000 ; undefined
     178:	0000053a 	.inst	0x0000053a ; undefined
     17c:	05450319 	.inst	0x05450319 ; undefined
     180:	031a0000 	.inst	0x031a0000 ; undefined
     184:	00000550 	.inst	0x00000550 ; undefined
     188:	055b031b 	mov	z27.h, p11/z, #24
     18c:	031c0000 	.inst	0x031c0000 ; undefined
     190:	00000566 	.inst	0x00000566 ; undefined
     194:	0124031d 	.inst	0x0124031d ; undefined
     198:	031e0000 	.inst	0x031e0000 ; undefined
     19c:	0000012f 	.inst	0x0000012f ; undefined
     1a0:	013a031f 	.inst	0x013a031f ; undefined
     1a4:	03200000 	.inst	0x03200000 ; undefined
     1a8:	00000145 	.inst	0x00000145 ; undefined
     1ac:	01500321 	.inst	0x01500321 ; undefined
     1b0:	03220000 	.inst	0x03220000 ; undefined
     1b4:	0000015b 	.inst	0x0000015b ; undefined
     1b8:	01660323 	.inst	0x01660323 ; undefined
     1bc:	03240000 	.inst	0x03240000 ; undefined
     1c0:	00000171 	.inst	0x00000171 ; undefined
     1c4:	017c0325 	.inst	0x017c0325 ; undefined
     1c8:	03260000 	.inst	0x03260000 ; undefined
     1cc:	000001cb 	.inst	0x000001cb ; undefined
     1d0:	01f00327 	.inst	0x01f00327 ; undefined
     1d4:	03280000 	.inst	0x03280000 ; undefined
     1d8:	000001fb 	.inst	0x000001fb ; undefined
     1dc:	02060329 	.inst	0x02060329 ; undefined
     1e0:	032a0000 	.inst	0x032a0000 ; undefined
     1e4:	00000211 	.inst	0x00000211 ; undefined
     1e8:	021c032b 	.inst	0x021c032b ; undefined
     1ec:	032c0000 	.inst	0x032c0000 ; undefined
     1f0:	00000227 	.inst	0x00000227 ; undefined
     1f4:	0232032d 	.inst	0x0232032d ; undefined
     1f8:	032e0000 	.inst	0x032e0000 ; undefined
     1fc:	0000023d 	.inst	0x0000023d ; undefined
     200:	0248032f 	.inst	0x0248032f ; undefined
     204:	03300000 	.inst	0x03300000 ; undefined
     208:	00000253 	.inst	0x00000253 ; undefined
     20c:	03f20331 	.inst	0x03f20331 ; undefined
     210:	03320000 	.inst	0x03320000 ; undefined
     214:	000003fd 	.inst	0x000003fd ; undefined
     218:	04080333 	smax	z19.b, p0/m, z19.b, z25.b
     21c:	03340000 	.inst	0x03340000 ; undefined
     220:	00000413 	.inst	0x00000413 ; undefined
     224:	01bd0335 	.inst	0x01bd0335 ; undefined
     228:	00350000 	.inst	0x00350000 ; NYI
     22c:	83070404 	.inst	0x83070404 ; undefined
     230:	05000006 	orr	z6.s, z6.s, #0x1
     234:	0000018b 	.inst	0x0000018b ; undefined
     238:	8b040702 	add	x2, x24, x4, lsl #1
     23c:	02000001 	.inst	0x02000001 ; undefined
     240:	0001d55d 	.inst	0x0001d55d ; undefined
     244:	02720300 	.inst	0x02720300 ; undefined
     248:	03000000 	.inst	0x03000000 ; undefined
     24c:	00000103 	.inst	0x00000103 ; undefined
     250:	041e0301 	.inst	0x041e0301 ; undefined
     254:	03040000 	.inst	0x03040000 ; undefined
     258:	000000db 	.inst	0x000000db ; undefined
     25c:	043c0305 	add	z5.b, z24.b, z28.b
     260:	03060000 	.inst	0x03060000 ; undefined
     264:	0000025e 	.inst	0x0000025e ; undefined
     268:	01870307 	.inst	0x01870307 ; undefined
     26c:	03030000 	.inst	0x03030000 ; undefined
     270:	00000196 	.inst	0x00000196 ; undefined
     274:	6d060002 	stp	d2, d0, [x0, #96]
     278:	60000002 	.inst	0x60000002 ; undefined
     27c:	03020501 	.inst	0x03020501 ; undefined
     280:	26070000 	.inst	0x26070000 ; undefined
     284:	01000003 	.inst	0x01000003 ; undefined
     288:	00018b06 	.inst	0x00018b06 ; undefined
     28c:	2c070000 	stnp	s0, s0, [x0, #56]
     290:	01000003 	.inst	0x01000003 ; undefined
     294:	00018b07 	.inst	0x00018b07 ; undefined
     298:	32070400 	orr	w0, w0, #0x6000000
     29c:	01000003 	.inst	0x01000003 ; undefined
     2a0:	00018b08 	.inst	0x00018b08 ; undefined
     2a4:	38070800 	sttrb	w0, [x0, #112]
     2a8:	01000003 	.inst	0x01000003 ; undefined
     2ac:	00018b09 	.inst	0x00018b09 ; undefined
     2b0:	3e070c00 	.inst	0x3e070c00 ; undefined
     2b4:	01000003 	.inst	0x01000003 ; undefined
     2b8:	00018b0a 	.inst	0x00018b0a ; undefined
     2bc:	44071000 	.inst	0x44071000 ; undefined
     2c0:	01000003 	.inst	0x01000003 ; undefined
     2c4:	00018b0b 	.inst	0x00018b0b ; undefined
     2c8:	1c071400 	ldr	s0, e548 <_start-0x71ab8>
     2cc:	01000003 	.inst	0x01000003 ; undefined
     2d0:	00018b0c 	.inst	0x00018b0c ; undefined
     2d4:	7c071800 	.inst	0x7c071800 ; undefined
     2d8:	01000004 	.inst	0x01000004 ; undefined
     2dc:	00018b0d 	.inst	0x00018b0d ; undefined
     2e0:	81071c00 	.inst	0x81071c00 ; undefined
     2e4:	01000004 	.inst	0x01000004 ; undefined
     2e8:	00018b0e 	.inst	0x00018b0e ; undefined
     2ec:	4b072000 	sub	w0, w0, w7, lsl #8
     2f0:	01000004 	.inst	0x01000004 ; undefined
     2f4:	00018b0f 	.inst	0x00018b0f ; undefined
     2f8:	e6072400 	.inst	0xe6072400 ; undefined
     2fc:	01000001 	.inst	0x01000001 ; undefined
     300:	00018b10 	.inst	0x00018b10 ; undefined
     304:	eb072800 	subs	x0, x0, x7, lsl #10
     308:	01000001 	.inst	0x01000001 ; undefined
     30c:	00018b11 	.inst	0x00018b11 ; undefined
     310:	50072c00 	adr	x0, e892 <_start-0x7176e>
     314:	01000004 	.inst	0x01000004 ; undefined
     318:	00018b12 	.inst	0x00018b12 ; undefined
     31c:	01073000 	.inst	0x01073000 ; undefined
     320:	01000003 	.inst	0x01000003 ; undefined
     324:	00018b13 	.inst	0x00018b13 ; undefined
     328:	06073400 	.inst	0x06073400 ; undefined
     32c:	01000003 	.inst	0x01000003 ; undefined
     330:	00018b14 	.inst	0x00018b14 ; undefined
     334:	55073800 	.inst	0x55073800 ; undefined
     338:	01000004 	.inst	0x01000004 ; undefined
     33c:	00018b15 	.inst	0x00018b15 ; undefined
     340:	ea073c00 	ands	x0, x0, x7, lsl #15
     344:	01000000 	.inst	0x01000000 ; undefined
     348:	00018b16 	.inst	0x00018b16 ; undefined
     34c:	ef074000 	.inst	0xef074000 ; undefined
     350:	01000000 	.inst	0x01000000 ; undefined
     354:	00018b17 	.inst	0x00018b17 ; undefined
     358:	5a074400 	.inst	0x5a074400 ; undefined
     35c:	01000004 	.inst	0x01000004 ; undefined
     360:	00018b18 	.inst	0x00018b18 ; undefined
     364:	e1074800 	.inst	0xe1074800 ; undefined
     368:	01000001 	.inst	0x01000001 ; undefined
     36c:	00018b19 	.inst	0x00018b19 ; undefined
     370:	71074c00 	subs	w0, w0, #0x1d3
     374:	01000005 	.inst	0x01000005 ; undefined
     378:	00018b1a 	.inst	0x00018b1a ; undefined
     37c:	5f075000 	fmls	h0, h0, v7.h[0]
     380:	01000004 	.inst	0x01000004 ; undefined
     384:	00018b1b 	.inst	0x00018b1b ; undefined
     388:	17075400 	b	fffffffffc1d5388 <__bss_end__+0xfffffffffc154448>
     38c:	01000003 	.inst	0x01000003 ; undefined
     390:	00018b1c 	.inst	0x00018b1c ; undefined
     394:	21075800 	.inst	0x21075800 ; undefined
     398:	01000003 	.inst	0x01000003 ; undefined
     39c:	00018b1d 	.inst	0x00018b1d ; undefined
     3a0:	05005c00 	orr	z0.h, z0.h, #0x20
     3a4:	000001d5 	.inst	0x000001d5 ; undefined
     3a8:	0003d208 	.inst	0x0003d208 ; undefined
     3ac:	1c200100 	ldr	s0, 403cc <_start-0x3fc34>
     3b0:	09000003 	.inst	0x09000003 ; undefined
     3b4:	080f2803 	stxrb	w15, w3, [x0]
     3b8:	00000000 	.inst	0x00000000 ; undefined
     3bc:	02080900 	.inst	0x02080900 ; undefined
     3c0:	0a000003 	and	w3, w0, w0
     3c4:	000005a0 	.inst	0x000005a0 ; undefined
     3c8:	018ba001 	.inst	0x018ba001 ; undefined
     3cc:	02d40000 	.inst	0x02d40000 ; undefined
     3d0:	00000008 	.inst	0x00000008 ; undefined
     3d4:	00380000 	.inst	0x00380000 ; NYI
     3d8:	00000000 	.inst	0x00000000 ; undefined
     3dc:	9c010000 	ldr	q0, 23dc <_start-0x7dc24>
     3e0:	0000039d 	.inst	0x0000039d ; undefined
     3e4:	6e69700b 	uabdl2	v11.4s, v0.8h, v9.8h
     3e8:	8ba00100 	.inst	0x8ba00100 ; undefined
     3ec:	38000001 	sturb	w1, [x0]
     3f0:	0c000000 	st4	{v0.8b-v3.8b}, [x0]
     3f4:	00676572 	.inst	0x00676572 ; undefined
     3f8:	039da101 	.inst	0x039da101 ; undefined
     3fc:	00840000 	.inst	0x00840000 ; undefined
     400:	2b0d0000 	adds	w0, w0, w13
     404:	01000008 	.inst	0x01000008 ; undefined
     408:	00018ba2 	.inst	0x00018ba2 ; undefined
     40c:	0000ba00 	.inst	0x0000ba00 ; undefined
     410:	02e80e00 	.inst	0x02e80e00 ; undefined
     414:	00000008 	.inst	0x00000008 ; undefined
     418:	05b90000 	.inst	0x05b90000 ; undefined
     41c:	03880000 	.inst	0x03880000 ; undefined
     420:	010f0000 	.inst	0x010f0000 ; undefined
     424:	00840250 	.inst	0x00840250 ; undefined
     428:	02f41000 	.inst	0x02f41000 ; undefined
     42c:	00000008 	.inst	0x00000008 ; undefined
     430:	064c0000 	.inst	0x064c0000 ; undefined
     434:	010f0000 	.inst	0x010f0000 ; undefined
     438:	00840250 	.inst	0x00840250 ; undefined
     43c:	08090000 	stxrb	w9, w0, [x0]
     440:	00000192 	.inst	0x00000192 ; undefined
     444:	0001d611 	.inst	0x0001d611 ; undefined
     448:	80950100 	.inst	0x80950100 ; undefined
     44c:	00000802 	.inst	0x00000802 ; undefined
     450:	54000000 	b.eq	450 <_start-0x7fbb0>  // b.none
     454:	00000000 	.inst	0x00000000 ; undefined
     458:	01000000 	.inst	0x01000000 ; undefined
     45c:	0004419c 	.inst	0x0004419c ; undefined
     460:	69700b00 	ldpsw	x0, x2, [x24, #-128]
     464:	9501006e 	bl	404061c <__bss_end__+0x3fbf6dc>
     468:	0000018b 	.inst	0x0000018b ; undefined
     46c:	000000dd 	.inst	0x000000dd ; undefined
     470:	6c61760b 	ldnp	d11, d29, [x16, #-496]
     474:	8b950100 	add	x0, x8, x21, asr #0
     478:	3c000001 	stur	b1, [x0]
     47c:	0c000001 	st4	{v1.8b-v4.8b}, [x0]
     480:	00676572 	.inst	0x00676572 ; undefined
     484:	039d9601 	.inst	0x039d9601 ; undefined
     488:	019b0000 	.inst	0x019b0000 ; undefined
     48c:	2b0d0000 	adds	w0, w0, w13
     490:	01000008 	.inst	0x01000008 ; undefined
     494:	00018b97 	.inst	0x00018b97 ; undefined
     498:	0001d100 	.inst	0x0001d100 ; undefined
     49c:	029c0e00 	.inst	0x029c0e00 ; undefined
     4a0:	00000008 	.inst	0x00000008 ; undefined
     4a4:	064c0000 	.inst	0x064c0000 ; undefined
     4a8:	04140000 	.inst	0x04140000 ; undefined
     4ac:	010f0000 	.inst	0x010f0000 ; undefined
     4b0:	00840250 	.inst	0x00840250 ; undefined
     4b4:	02ac0e00 	.inst	0x02ac0e00 ; undefined
     4b8:	00000008 	.inst	0x00000008 ; undefined
     4bc:	05ea0000 	.inst	0x05ea0000 ; undefined
     4c0:	042c0000 	add	z0.b, z0.b, z12.b
     4c4:	010f0000 	.inst	0x010f0000 ; undefined
     4c8:	00840250 	.inst	0x00840250 ; undefined
     4cc:	02d01000 	.inst	0x02d01000 ; undefined
     4d0:	00000008 	.inst	0x00000008 ; undefined
     4d4:	061b0000 	.inst	0x061b0000 ; undefined
     4d8:	010f0000 	.inst	0x010f0000 ; undefined
     4dc:	00840250 	.inst	0x00840250 ; undefined
     4e0:	14110000 	b	4404e0 <__bss_end__+0x3bf5a0>
     4e4:	01000001 	.inst	0x01000001 ; undefined
     4e8:	08026891 	stxrb	w2, w17, [x4]
     4ec:	00000000 	.inst	0x00000000 ; undefined
     4f0:	00001800 	.inst	0x00001800 ; undefined
     4f4:	00000000 	.inst	0x00000000 ; undefined
     4f8:	889c0100 	stllr	w0, [x8]
     4fc:	0b000004 	add	w4, w0, w0
     500:	006e6970 	.inst	0x006e6970 ; undefined
     504:	018b9101 	.inst	0x018b9101 ; undefined
     508:	022d0000 	.inst	0x022d0000 ; undefined
     50c:	78100000 	sturh	w0, [x0, #-256]
     510:	00000802 	.inst	0x00000802 ; undefined
     514:	32000000 	orr	w0, w0, #0x1
     518:	0f000005 	.inst	0x0f000005 ; undefined
     51c:	f3035001 	.inst	0xf3035001 ; undefined
     520:	010f5001 	.inst	0x010f5001 ; undefined
     524:	00310151 	.inst	0x00310151 ; NYI
     528:	04861100 	.inst	0x04861100 ; undefined
     52c:	8d010000 	.inst	0x8d010000 ; undefined
     530:	00080250 	.inst	0x00080250 ; undefined
     534:	00000000 	.inst	0x00000000 ; undefined
     538:	00000018 	.inst	0x00000018 ; undefined
     53c:	00000000 	.inst	0x00000000 ; undefined
     540:	04cf9c01 	.inst	0x04cf9c01 ; undefined
     544:	700b0000 	adr	x0, 16547 <_start-0x69ab9>
     548:	01006e69 	.inst	0x01006e69 ; undefined
     54c:	00018b8d 	.inst	0x00018b8d ; undefined
     550:	00026600 	.inst	0x00026600 ; undefined
     554:	02601000 	.inst	0x02601000 ; undefined
     558:	00000008 	.inst	0x00000008 ; undefined
     55c:	05320000 	ext	z0.b, z0.b, z0.b, #144
     560:	010f0000 	.inst	0x010f0000 ; undefined
     564:	01f30350 	.inst	0x01f30350 ; undefined
     568:	51010f50 	sub	w16, w26, #0x43
     56c:	00003001 	.inst	0x00003001 ; undefined
     570:	0005760a 	.inst	0x0005760a ; undefined
     574:	8b810100 	add	x0, x8, x1, asr #0
     578:	f4000001 	.inst	0xf4000001 ; undefined
     57c:	00000801 	.inst	0x00000801 ; undefined
     580:	5c000000 	ldr	d0, 580 <_start-0x7fa80>
     584:	00000000 	.inst	0x00000000 ; undefined
     588:	01000000 	.inst	0x01000000 ; undefined
     58c:	0005329c 	.inst	0x0005329c ; undefined
     590:	69700b00 	ldpsw	x0, x2, [x24, #-128]
     594:	8101006e 	.inst	0x8101006e ; undefined
     598:	0000018b 	.inst	0x0000018b ; undefined
     59c:	0000029f 	.inst	0x0000029f ; undefined
     5a0:	00082b0d 	.inst	0x00082b0d ; undefined
     5a4:	8b820100 	add	x0, x8, x2, asr #0
     5a8:	fe000001 	.inst	0xfe000001 ; undefined
     5ac:	0c000002 	st4	{v2.8b-v5.8b}, [x0]
     5b0:	00676572 	.inst	0x00676572 ; undefined
     5b4:	039d8301 	.inst	0x039d8301 ; undefined
     5b8:	03490000 	.inst	0x03490000 ; undefined
     5bc:	08100000 	stxrb	w16, w0, [x0]
     5c0:	00000802 	.inst	0x00000802 ; undefined
     5c4:	7d000000 	str	h0, [x0]
     5c8:	0f000006 	.inst	0x0f000006 ; undefined
     5cc:	83025001 	.inst	0x83025001 ; undefined
     5d0:	11000000 	add	w0, w0, #0x0
     5d4:	000003e0 	.inst	0x000003e0 ; undefined
     5d8:	017c7501 	.inst	0x017c7501 ; undefined
     5dc:	00000008 	.inst	0x00000008 ; undefined
     5e0:	00780000 	.inst	0x00780000 ; undefined
     5e4:	00000000 	.inst	0x00000000 ; undefined
     5e8:	9c010000 	ldr	q0, 25e8 <_start-0x7da18>
     5ec:	000005a0 	.inst	0x000005a0 ; undefined
     5f0:	6e69700b 	uabdl2	v11.4s, v0.8h, v9.8h
     5f4:	8b750100 	.inst	0x8b750100 ; undefined
     5f8:	7f000001 	.inst	0x7f000001 ; undefined
     5fc:	12000003 	and	w3, w0, #0x1
     600:	0000057f 	.inst	0x0000057f ; undefined
     604:	018b7501 	.inst	0x018b7501 ; undefined
     608:	03de0000 	.inst	0x03de0000 ; undefined
     60c:	2b0d0000 	adds	w0, w0, w13
     610:	01000008 	.inst	0x01000008 ; undefined
     614:	00018b76 	.inst	0x00018b76 ; undefined
     618:	00043d00 	.inst	0x00043d00 ; undefined
     61c:	65720c00 	fmla	z0.h, p3/m, z0.h, z18.h
     620:	77010067 	.inst	0x77010067 ; undefined
     624:	0000039d 	.inst	0x0000039d ; undefined
     628:	00000488 	.inst	0x00000488 ; undefined
     62c:	0801ac10 	stlxrb	w1, w16, [x0]
     630:	00000000 	.inst	0x00000000 ; undefined
     634:	00067d00 	.inst	0x00067d00 ; undefined
     638:	50010f00 	adr	x0, 281a <_start-0x7d7e6>
     63c:	00008302 	.inst	0x00008302 ; undefined
     640:	04f91300 	sqadd	z0.d, z24.d, z25.d
     644:	70010000 	adr	x0, 2647 <_start-0x7d9b9>
     648:	0008016c 	.inst	0x0008016c ; undefined
     64c:	00000000 	.inst	0x00000000 ; undefined
     650:	00000010 	.inst	0x00000010 ; undefined
     654:	00000000 	.inst	0x00000000 ; undefined
     658:	64149c01 	.inst	0x64149c01 ; undefined
     65c:	01000004 	.inst	0x01000004 ; undefined
     660:	00039d67 	.inst	0x00039d67 ; undefined
     664:	08014400 	stxrb	w1, w0, [x0]
     668:	00000000 	.inst	0x00000000 ; undefined
     66c:	00002800 	.inst	0x00002800 ; undefined
     670:	00000000 	.inst	0x00000000 ; undefined
     674:	ea9c0100 	ands	x0, x8, x28, asr #0
     678:	0b000005 	add	w5, w0, w0
     67c:	006e6970 	.inst	0x006e6970 ; undefined
     680:	018b6701 	.inst	0x018b6701 ; undefined
     684:	04ab0000 	add	z0.s, z0.s, z11.s
     688:	14000000 	b	688 <_start-0x7f978>
     68c:	000003b8 	.inst	0x000003b8 ; undefined
     690:	039d5e01 	.inst	0x039d5e01 ; undefined
     694:	011c0000 	.inst	0x011c0000 ; undefined
     698:	00000008 	.inst	0x00000008 ; undefined
     69c:	00280000 	.inst	0x00280000 ; NYI
     6a0:	00000000 	.inst	0x00000000 ; undefined
     6a4:	9c010000 	ldr	q0, 26a4 <_start-0x7d95c>
     6a8:	0000061b 	.inst	0x0000061b ; undefined
     6ac:	6e69700b 	uabdl2	v11.4s, v0.8h, v9.8h
     6b0:	8b5e0100 	add	x0, x8, x30, lsr #0
     6b4:	0d000001 	st1	{v1.b}[0], [x0]
     6b8:	00000005 	.inst	0x00000005 ; undefined
     6bc:	00058814 	.inst	0x00058814 ; undefined
     6c0:	9d560100 	.inst	0x9d560100 ; undefined
     6c4:	f4000003 	.inst	0xf4000003 ; undefined
     6c8:	00000800 	.inst	0x00000800 ; undefined
     6cc:	28000000 	stnp	w0, w0, [x0]
     6d0:	00000000 	.inst	0x00000000 ; undefined
     6d4:	01000000 	.inst	0x01000000 ; undefined
     6d8:	00064c9c 	.inst	0x00064c9c ; undefined
     6dc:	69700b00 	ldpsw	x0, x2, [x24, #-128]
     6e0:	5601006e 	.inst	0x5601006e ; undefined
     6e4:	0000018b 	.inst	0x0000018b ; undefined
     6e8:	0000056f 	.inst	0x0000056f ; undefined
     6ec:	00f41400 	.inst	0x00f41400 ; undefined
     6f0:	52010000 	eor	w0, w0, #0x80000000
     6f4:	0000018b 	.inst	0x0000018b ; undefined
     6f8:	000800ec 	.inst	0x000800ec ; undefined
     6fc:	00000000 	.inst	0x00000000 ; undefined
     700:	00000008 	.inst	0x00000008 ; undefined
     704:	00000000 	.inst	0x00000000 ; undefined
     708:	067d9c01 	.inst	0x067d9c01 ; undefined
     70c:	700b0000 	adr	x0, 1670f <_start-0x698f1>
     710:	01006e69 	.inst	0x01006e69 ; undefined
     714:	00018b52 	.inst	0x00018b52 ; undefined
     718:	0005d100 	.inst	0x0005d100 ; undefined
     71c:	a5150000 	ld1rqw	{z0.s}, p0/z, [x0, x21, lsl #2]
     720:	01000001 	.inst	0x01000001 ; undefined
     724:	00039d22 	.inst	0x00039d22 ; undefined
     728:	08004800 	stxrb	w0, w0, [x0]
     72c:	00000000 	.inst	0x00000000 ; undefined
     730:	0000a400 	.inst	0x0000a400 ; undefined
     734:	00000000 	.inst	0x00000000 ; undefined
     738:	0b9c0100 	add	w0, w8, w28, asr #0
     73c:	006e6970 	.inst	0x006e6970 ; undefined
     740:	018b2201 	.inst	0x018b2201 ; undefined
     744:	060a0000 	.inst	0x060a0000 ; undefined
     748:	720c0000 	ands	w0, w0, #0x100000
     74c:	01006765 	.inst	0x01006765 ; undefined
     750:	00039d23 	.inst	0x00039d23 ; undefined
     754:	00064300 	.inst	0x00064300 ; undefined
     758:	61760c00 	.inst	0x61760c00 ; undefined
     75c:	2401006c 	cmphs	p12.b, p0/z, z3.b, z1.b
     760:	0000018b 	.inst	0x0000018b ; undefined
     764:	0000073e 	.inst	0x0000073e ; undefined
     768:	01d60000 	.inst	0x01d60000 ; undefined
     76c:	00040000 	.inst	0x00040000 ; undefined
     770:	000001e1 	.inst	0x000001e1 ; undefined
     774:	02820108 	.inst	0x02820108 ; undefined
     778:	c40c0000 	ld1sb	{z0.d}, p0/z, [x0, z12.d, uxtw]
     77c:	14000005 	b	790 <_start-0x7f870>
     780:	0c000000 	st4	{v0.8b-v3.8b}, [x0]
     784:	00000803 	.inst	0x00000803 ; undefined
     788:	a0000000 	.inst	0xa0000000 ; undefined
     78c:	00000000 	.inst	0x00000000 ; undefined
     790:	dc000000 	.inst	0xdc000000 ; undefined
     794:	02000000 	.inst	0x02000000 ; undefined
     798:	000005e4 	.inst	0x000005e4 ; undefined
     79c:	a6040124 	.inst	0xa6040124 ; undefined
     7a0:	03000000 	.inst	0x03000000 ; undefined
     7a4:	00000640 	.inst	0x00000640 ; undefined
     7a8:	00ab0501 	.inst	0x00ab0501 ; undefined
     7ac:	03000000 	.inst	0x03000000 ; undefined
     7b0:	00000638 	.inst	0x00000638 ; undefined
     7b4:	00ab0601 	.inst	0x00ab0601 ; undefined
     7b8:	03040000 	.inst	0x03040000 ; undefined
     7bc:	00000645 	.inst	0x00000645 ; undefined
     7c0:	00ab0701 	.inst	0x00ab0701 ; undefined
     7c4:	03080000 	.inst	0x03080000 ; undefined
     7c8:	0000061b 	.inst	0x0000061b ; undefined
     7cc:	00ab0801 	.inst	0x00ab0801 ; undefined
     7d0:	030c0000 	.inst	0x030c0000 ; undefined
     7d4:	000005dc 	.inst	0x000005dc ; undefined
     7d8:	00ab0901 	.inst	0x00ab0901 ; undefined
     7dc:	03100000 	.inst	0x03100000 ; undefined
     7e0:	00000652 	.inst	0x00000652 ; undefined
     7e4:	00ab0a01 	.inst	0x00ab0a01 ; undefined
     7e8:	03140000 	.inst	0x03140000 ; undefined
     7ec:	0000063e 	.inst	0x0000063e ; undefined
     7f0:	00ab0b01 	.inst	0x00ab0b01 ; undefined
     7f4:	03180000 	.inst	0x03180000 ; undefined
     7f8:	0000060f 	.inst	0x0000060f ; undefined
     7fc:	00ab0c01 	.inst	0x00ab0c01 ; undefined
     800:	031c0000 	.inst	0x031c0000 ; undefined
     804:	000005af 	.inst	0x000005af ; undefined
     808:	00ab0d01 	.inst	0x00ab0d01 ; undefined
     80c:	00200000 	.inst	0x00200000 ; NYI
     810:	00002d04 	.inst	0x00002d04 ; undefined
     814:	07040500 	.inst	0x07040500 ; undefined
     818:	00000683 	.inst	0x00000683 ; undefined
     81c:	0005ea06 	.inst	0x0005ea06 ; undefined
     820:	c7100100 	.inst	0xc7100100 ; undefined
     824:	09000000 	.inst	0x09000000 ; undefined
     828:	080f3003 	stxrb	w15, w3, [x0]
     82c:	00000000 	.inst	0x00000000 ; undefined
     830:	a6080700 	.inst	0xa6080700 ; undefined
     834:	08000000 	stxrb	w0, w0, [x0]
     838:	000005f4 	.inst	0x000005f4 ; undefined
     83c:	038c4001 	.inst	0x038c4001 ; undefined
     840:	00000008 	.inst	0x00000008 ; undefined
     844:	00200000 	.inst	0x00200000 ; NYI
     848:	00000000 	.inst	0x00000000 ; undefined
     84c:	9c010000 	ldr	q0, 284c <_start-0x7d7b4>
     850:	00000107 	.inst	0x00000107 ; undefined
     854:	63657309 	.inst	0x63657309 ; undefined
     858:	ab400100 	adds	x0, x8, x0, lsr #0
     85c:	f9000000 	str	x0, [x0]
     860:	0a000008 	and	w8, w0, w0
     864:	000803a4 	.inst	0x000803a4 ; undefined
     868:	00000000 	.inst	0x00000000 ; undefined
     86c:	0000014d 	.inst	0x0000014d ; undefined
     870:	06290800 	.inst	0x06290800 ; undefined
     874:	37010000 	tbnz	w0, #0, 2874 <_start-0x7d78c>
     878:	00080370 	.inst	0x00080370 ; undefined
     87c:	00000000 	.inst	0x00000000 ; undefined
     880:	0000001c 	.inst	0x0000001c ; undefined
     884:	00000000 	.inst	0x00000000 ; undefined
     888:	014d9c01 	.inst	0x014d9c01 ; undefined
     88c:	aa0b0000 	orr	x0, x0, x11
     890:	01000005 	.inst	0x01000005 ; undefined
     894:	0000ab37 	.inst	0x0000ab37 ; undefined
     898:	00093200 	.inst	0x00093200 ; undefined
     89c:	03840c00 	.inst	0x03840c00 ; undefined
     8a0:	00000008 	.inst	0x00000008 ; undefined
     8a4:	014d0000 	.inst	0x014d0000 ; undefined
     8a8:	010d0000 	.inst	0x010d0000 ; undefined
     8ac:	01f30750 	.inst	0x01f30750 ; undefined
     8b0:	03e80a50 	.inst	0x03e80a50 ; undefined
     8b4:	0800001e 	stxrb	w0, w30, [x0]
     8b8:	00000600 	.inst	0x00000600 ; undefined
     8bc:	033c2d01 	.inst	0x033c2d01 ; undefined
     8c0:	00000008 	.inst	0x00000008 ; undefined
     8c4:	00340000 	.inst	0x00340000 ; NYI
     8c8:	00000000 	.inst	0x00000000 ; undefined
     8cc:	9c010000 	ldr	q0, 28cc <_start-0x7d734>
     8d0:	000001a3 	.inst	0x000001a3 ; undefined
     8d4:	00064d0b 	.inst	0x00064d0b ; undefined
     8d8:	ab2d0100 	adds	x0, x8, w13, uxtb
     8dc:	6b000000 	subs	w0, w0, w0
     8e0:	0e000009 	tbl	v9.8b, {v0.16b}, v0.8b
     8e4:	000000d5 	.inst	0x000000d5 ; undefined
     8e8:	00ab2e01 	.inst	0x00ab2e01 ; undefined
     8ec:	09b70000 	.inst	0x09b70000 ; undefined
     8f0:	500a0000 	adr	x0, 148f2 <_start-0x6b70e>
     8f4:	00000803 	.inst	0x00000803 ; undefined
     8f8:	a3000000 	.inst	0xa3000000 ; undefined
     8fc:	0a000001 	and	w1, w0, w0
     900:	00080358 	.inst	0x00080358 ; undefined
     904:	00000000 	.inst	0x00000000 ; undefined
     908:	000001a3 	.inst	0x000001a3 ; undefined
     90c:	065d0f00 	.inst	0x065d0f00 ; undefined
     910:	24010000 	cmphs	p0.b, p0/z, z0.b, z1.b
     914:	000000ab 	.inst	0x000000ab ; undefined
     918:	0008032c 	.inst	0x0008032c ; undefined
     91c:	00000000 	.inst	0x00000000 ; undefined
     920:	00000010 	.inst	0x00000010 ; undefined
     924:	00000000 	.inst	0x00000000 ; undefined
     928:	d1109c01 	sub	x1, x0, #0x427
     92c:	01000005 	.inst	0x01000005 ; undefined
     930:	08030c18 	stxrb	w3, w24, [x0]
     934:	00000000 	.inst	0x00000000 ; undefined
     938:	00002000 	.inst	0x00002000 ; undefined
     93c:	00000000 	.inst	0x00000000 ; undefined
     940:	009c0100 	.inst	0x009c0100 ; undefined
     944:	00000375 	.inst	0x00000375 ; undefined
     948:	02d80004 	.inst	0x02d80004 ; undefined
     94c:	01080000 	.inst	0x01080000 ; undefined
     950:	00000282 	.inst	0x00000282 ; undefined
     954:	0007010c 	.inst	0x0007010c ; undefined
     958:	00001400 	.inst	0x00001400 ; undefined
     95c:	0803ac00 	stlxrb	w3, w0, [x0]
     960:	00000000 	.inst	0x00000000 ; undefined
     964:	00022800 	.inst	0x00022800 ; undefined
     968:	00000000 	.inst	0x00000000 ; undefined
     96c:	00013200 	.inst	0x00013200 ; undefined
     970:	05080200 	.inst	0x05080200 ; undefined
     974:	000006b9 	.inst	0x000006b9 ; undefined
     978:	00066d03 	.inst	0x00066d03 ; undefined
     97c:	3fd80200 	.inst	0x3fd80200 ; undefined
     980:	02000000 	.inst	0x02000000 ; undefined
     984:	067e0708 	.inst	0x067e0708 ; undefined
     988:	04020000 	.inst	0x04020000 ; undefined
     98c:	00068307 	.inst	0x00068307 ; undefined
     990:	06e70400 	.inst	0x06e70400 ; undefined
     994:	4f010000 	.inst	0x4f010000 ; undefined
     998:	000000ce 	.inst	0x000000ce ; undefined
     99c:	00080564 	.inst	0x00080564 ; undefined
     9a0:	00000000 	.inst	0x00000000 ; undefined
     9a4:	00000070 	.inst	0x00000070 ; undefined
     9a8:	00000000 	.inst	0x00000000 ; undefined
     9ac:	00ce9c01 	.inst	0x00ce9c01 ; undefined
     9b0:	64050000 	.inst	0x64050000 ; undefined
     9b4:	01007473 	.inst	0x01007473 ; undefined
     9b8:	0000d54f 	.inst	0x0000d54f ; undefined
     9bc:	0009da00 	.inst	0x0009da00 ; undefined
     9c0:	72730500 	.inst	0x72730500 ; undefined
     9c4:	4f010063 	.inst	0x4f010063 ; undefined
     9c8:	000000e7 	.inst	0x000000e7 ; undefined
     9cc:	00000a26 	.inst	0x00000a26 ; undefined
     9d0:	0006ef06 	.inst	0x0006ef06 ; undefined
     9d4:	ce4f0100 	.inst	0xce4f0100 ; undefined
     9d8:	72000000 	ands	w0, w0, #0x1
     9dc:	0700000a 	.inst	0x0700000a ; undefined
     9e0:	000006ae 	.inst	0x000006ae ; undefined
     9e4:	00ce5001 	.inst	0x00ce5001 ; undefined
     9e8:	0abe0000 	bic	w0, w0, w30, asr #0
     9ec:	2b070000 	adds	w0, w0, w7
     9f0:	01000008 	.inst	0x01000008 ; undefined
     9f4:	0000ce51 	.inst	0x0000ce51 ; undefined
     9f8:	000ae100 	.inst	0x000ae100 ; undefined
     9fc:	05840800 	.inst	0x05840800 ; undefined
     a00:	00000008 	.inst	0x00000008 ; undefined
     a04:	01d50000 	.inst	0x01d50000 ; undefined
     a08:	01090000 	.inst	0x01090000 ; undefined
     a0c:	00840250 	.inst	0x00840250 ; undefined
     a10:	040a0000 	smin	z0.b, p0/m, z0.b, z0.b
     a14:	746e6905 	.inst	0x746e6905 ; undefined
     a18:	db080b00 	.inst	0xdb080b00 ; undefined
     a1c:	02000000 	.inst	0x02000000 ; undefined
     a20:	08500801 	ldxrb	w1, [x0]
     a24:	db0c0000 	.inst	0xdb0c0000 ; undefined
     a28:	0b000000 	add	w0, w0, w0
     a2c:	0000e208 	.inst	0x0000e208 ; undefined
     a30:	06d70400 	.inst	0x06d70400 ; undefined
     a34:	47010000 	.inst	0x47010000 ; undefined
     a38:	00000046 	.inst	0x00000046 ; undefined
     a3c:	00080524 	.inst	0x00080524 ; undefined
     a40:	00000000 	.inst	0x00000000 ; undefined
     a44:	00000040 	.inst	0x00000040 ; undefined
     a48:	00000000 	.inst	0x00000000 ; undefined
     a4c:	01479c01 	.inst	0x01479c01 ; undefined
     a50:	73050000 	.inst	0x73050000 ; undefined
     a54:	01007274 	.inst	0x01007274 ; undefined
     a58:	0000e747 	.inst	0x0000e747 ; undefined
     a5c:	000b1800 	.inst	0x000b1800 ; undefined
     a60:	07100600 	.inst	0x07100600 ; undefined
     a64:	47010000 	.inst	0x47010000 ; undefined
     a68:	00000147 	.inst	0x00000147 ; undefined
     a6c:	00000b7a 	.inst	0x00000b7a ; undefined
     a70:	0805540d 	stxrb	w5, w13, [x0]
     a74:	00000000 	.inst	0x00000000 ; undefined
     a78:	0002e200 	.inst	0x0002e200 ; undefined
     a7c:	05600d00 	.inst	0x05600d00 ; undefined
     a80:	00000008 	.inst	0x00000008 ; undefined
     a84:	032f0000 	.inst	0x032f0000 ; undefined
     a88:	0b000000 	add	w0, w0, w0
     a8c:	0000e708 	.inst	0x0000e708 ; undefined
     a90:	06c20400 	.inst	0x06c20400 ; undefined
     a94:	3a010000 	adcs	w0, w0, w1
     a98:	000000ce 	.inst	0x000000ce ; undefined
     a9c:	000804bc 	.inst	0x000804bc ; undefined
     aa0:	00000000 	.inst	0x00000000 ; undefined
     aa4:	00000068 	.inst	0x00000068 ; undefined
     aa8:	00000000 	.inst	0x00000000 ; undefined
     aac:	01d59c01 	.inst	0x01d59c01 ; undefined
     ab0:	73050000 	.inst	0x73050000 ; undefined
     ab4:	3a010031 	adcs	w17, w1, w1
     ab8:	000000e7 	.inst	0x000000e7 ; undefined
     abc:	00000bdc 	.inst	0x00000bdc ; undefined
     ac0:	00327305 	.inst	0x00327305 ; NYI
     ac4:	00e73a01 	.inst	0x00e73a01 ; undefined
     ac8:	0c250000 	.inst	0x0c250000 ; undefined
     acc:	74070000 	.inst	0x74070000 ; undefined
     ad0:	01000006 	.inst	0x01000006 ; undefined
     ad4:	0000ce3b 	.inst	0x0000ce3b ; undefined
     ad8:	000c6e00 	.inst	0x000c6e00 ; undefined
     adc:	06f70700 	.inst	0x06f70700 ; undefined
     ae0:	3c010000 	stur	b0, [x0, #16]
     ae4:	000000ce 	.inst	0x000000ce ; undefined
     ae8:	00000ca4 	.inst	0x00000ca4 ; undefined
     aec:	0804d80e 	stlxrb	w4, w14, [x0]
     af0:	00000000 	.inst	0x00000000 ; undefined
     af4:	0001d500 	.inst	0x0001d500 ; undefined
     af8:	0001c000 	.inst	0x0001c000 ; undefined
     afc:	50010900 	adr	x0, 2c1e <_start-0x7d3e2>
     b00:	00008502 	.inst	0x00008502 ; undefined
     b04:	0804e408 	stlxrb	w4, w8, [x0]
     b08:	00000000 	.inst	0x00000000 ; undefined
     b0c:	0001d500 	.inst	0x0001d500 ; undefined
     b10:	50010900 	adr	x0, 2c32 <_start-0x7d3ce>
     b14:	00008402 	.inst	0x00008402 ; undefined
     b18:	06e00400 	.inst	0x06e00400 ; undefined
     b1c:	32010000 	orr	w0, w0, #0x80000000
     b20:	000000ce 	.inst	0x000000ce ; undefined
     b24:	00080498 	.inst	0x00080498 ; undefined
     b28:	00000000 	.inst	0x00000000 ; undefined
     b2c:	00000024 	.inst	0x00000024 ; undefined
     b30:	00000000 	.inst	0x00000000 ; undefined
     b34:	02119c01 	.inst	0x02119c01 ; undefined
     b38:	73050000 	.inst	0x73050000 ; undefined
     b3c:	e7320100 	.inst	0xe7320100 ; undefined
     b40:	c7000000 	.inst	0xc7000000 ; undefined
     b44:	0f00000c 	.inst	0x0f00000c ; undefined
     b48:	3301006e 	bfi	w14, w3, #31, #1
     b4c:	000000ce 	.inst	0x000000ce ; undefined
     b50:	00000d23 	.inst	0x00000d23 ; undefined
     b54:	06d00400 	.inst	0x06d00400 ; undefined
     b58:	2b010000 	adds	w0, w0, w1
     b5c:	00000277 	.inst	0x00000277 ; undefined
     b60:	00080478 	.inst	0x00080478 ; undefined
     b64:	00000000 	.inst	0x00000000 ; undefined
     b68:	00000020 	.inst	0x00000020 ; undefined
     b6c:	00000000 	.inst	0x00000000 ; undefined
     b70:	02779c01 	.inst	0x02779c01 ; undefined
     b74:	64100000 	.inst	0x64100000 ; undefined
     b78:	01007473 	.inst	0x01007473 ; undefined
     b7c:	0002772b 	.inst	0x0002772b ; undefined
     b80:	10500100 	adr	x0, a0ba0 <__bss_end__+0x1fc60>
     b84:	00637273 	.inst	0x00637273 ; undefined
     b88:	02792b01 	.inst	0x02792b01 ; undefined
     b8c:	51010000 	sub	w0, w0, #0x40
     b90:	01006e10 	.inst	0x01006e10 ; undefined
     b94:	0000342b 	.inst	0x0000342b ; undefined
     b98:	11520100 	add	w0, w8, #0x480, lsl #12
     b9c:	00080478 	.inst	0x00080478 ; undefined
     ba0:	00000000 	.inst	0x00000000 ; undefined
     ba4:	0000001c 	.inst	0x0000001c ; undefined
     ba8:	00000000 	.inst	0x00000000 ; undefined
     bac:	0100690f 	.inst	0x0100690f ; undefined
     bb0:	0000342c 	.inst	0x0000342c ; undefined
     bb4:	000d5a00 	.inst	0x000d5a00 ; undefined
     bb8:	12000000 	and	w0, w0, #0x1
     bbc:	7f080b08 	.inst	0x7f080b08 ; undefined
     bc0:	13000002 	sbfx	w2, w0, #0, #1
     bc4:	0006c904 	.inst	0x0006c904 ; undefined
     bc8:	77240100 	.inst	0x77240100 ; undefined
     bcc:	5c000002 	ldr	d2, bcc <_start-0x7f434>
     bd0:	00000804 	.inst	0x00000804 ; undefined
     bd4:	1c000000 	ldr	s0, bd4 <_start-0x7f42c>
     bd8:	00000000 	.inst	0x00000000 ; undefined
     bdc:	01000000 	.inst	0x01000000 ; undefined
     be0:	0002e29c 	.inst	0x0002e29c ; undefined
     be4:	00731000 	.inst	0x00731000 ; undefined
     be8:	02772401 	.inst	0x02772401 ; undefined
     bec:	50010000 	adr	x0, 2bee <_start-0x7d412>
     bf0:	01006310 	.inst	0x01006310 ; undefined
     bf4:	0000ce24 	.inst	0x0000ce24 ; undefined
     bf8:	10510100 	adr	x0, a2c18 <__bss_end__+0x21cd8>
     bfc:	2401006e 	cmphs	p14.b, p0/z, z3.b, z1.b
     c00:	00000034 	.inst	0x00000034 ; undefined
     c04:	5c115201 	ldr	d1, 23644 <_start-0x5c9bc>
     c08:	00000804 	.inst	0x00000804 ; undefined
     c0c:	18000000 	ldr	w0, c0c <_start-0x7f3f4>
     c10:	00000000 	.inst	0x00000000 ; undefined
     c14:	0f000000 	.inst	0x0f000000 ; undefined
     c18:	25010069 	cmpge	p9.b, p0/z, z3.b, #1
     c1c:	00000034 	.inst	0x00000034 ; undefined
     c20:	00000d91 	.inst	0x00000d91 ; undefined
     c24:	90140000 	adrp	x0, 28000000 <__bss_end__+0x27f7f0c0>
     c28:	01000006 	.inst	0x01000006 ; undefined
     c2c:	00004617 	.inst	0x00004617 ; undefined
     c30:	08042000 	stxrb	w4, w0, [x0]
     c34:	00000000 	.inst	0x00000000 ; undefined
     c38:	00003c00 	.inst	0x00003c00 ; undefined
     c3c:	00000000 	.inst	0x00000000 ; undefined
     c40:	2f9c0100 	mla	v0.2s, v8.2s, v28.s[0]
     c44:	05000003 	orr	z3.s, z3.s, #0x1
     c48:	00727473 	.inst	0x00727473 ; undefined
     c4c:	00e71701 	.inst	0x00e71701 ; undefined
     c50:	0dc80000 	ld1	{v0.b}[0], [x0], x8
     c54:	10150000 	adr	x0, 2ac54 <_start-0x553ac>
     c58:	01000007 	.inst	0x01000007 ; undefined
     c5c:	00014717 	.inst	0x00014717 ; undefined
     c60:	0f510100 	.inst	0x0f510100 ; undefined
     c64:	006d756e 	.inst	0x006d756e ; undefined
     c68:	00461801 	.inst	0x00461801 ; undefined
     c6c:	0dfe0000 	ld2	{v0.b, v1.b}[0], [x0], x30
     c70:	16000000 	b	fffffffff8000c70 <__bss_end__+0xfffffffff7f7fd30>
     c74:	000006a1 	.inst	0x000006a1 ; undefined
     c78:	00460301 	.inst	0x00460301 ; undefined
     c7c:	03ac0000 	.inst	0x03ac0000 ; undefined
     c80:	00000008 	.inst	0x00000008 ; undefined
     c84:	00740000 	.inst	0x00740000 ; undefined
     c88:	00000000 	.inst	0x00000000 ; undefined
     c8c:	9c010000 	ldr	q0, 2c8c <_start-0x7d374>
     c90:	72747305 	.inst	0x72747305 ; undefined
     c94:	e7030100 	.inst	0xe7030100 ; undefined
     c98:	5f000000 	.inst	0x5f000000 ; undefined
     c9c:	1500000e 	b	4000cd4 <__bss_end__+0x3f7fd94>
     ca0:	00000710 	.inst	0x00000710 ; undefined
     ca4:	01470301 	.inst	0x01470301 ; undefined
     ca8:	51010000 	sub	w0, w0, #0x40
     cac:	6d756e0f 	ldp	d15, d27, [x16, #-176]
     cb0:	46040100 	.inst	0x46040100 ; undefined
     cb4:	95000000 	bl	4000cb4 <__bss_end__+0x3f7fd74>
     cb8:	0000000e 	.inst	0x0000000e ; undefined
     cbc:	00061400 	.inst	0x00061400 ; undefined
     cc0:	0b000400 	add	w0, w0, w0, lsl #1
     cc4:	08000004 	stxrb	w0, w4, [x0]
     cc8:	00028201 	.inst	0x00028201 ; undefined
     ccc:	074e0c00 	.inst	0x074e0c00 ; undefined
     cd0:	00140000 	.inst	0x00140000 ; undefined
     cd4:	05d40000 	mov	z0.d, p4/z, #0
     cd8:	00000008 	.inst	0x00000008 ; undefined
     cdc:	060c0000 	.inst	0x060c0000 ; undefined
     ce0:	00000000 	.inst	0x00000000 ; undefined
     ce4:	02510000 	.inst	0x02510000 ; undefined
     ce8:	ca020000 	eor	x0, x0, x2
     cec:	02000007 	.inst	0x02000007 ; undefined
     cf0:	00003828 	.inst	0x00003828 ; undefined
     cf4:	07790300 	.inst	0x07790300 ; undefined
     cf8:	05200000 	ext	z0.b, z0.b, z0.b, #0
     cfc:	00007700 	.inst	0x00007700 ; undefined
     d00:	072b0400 	.inst	0x072b0400 ; undefined
     d04:	00770000 	.inst	0x00770000 ; undefined
     d08:	04000000 	add	z0.b, p0/m, z0.b, z0.b
     d0c:	0000075c 	.inst	0x0000075c ; undefined
     d10:	00000077 	.inst	0x00000077 ; undefined
     d14:	07a40408 	.inst	0x07a40408 ; undefined
     d18:	00770000 	.inst	0x00770000 ; undefined
     d1c:	04100000 	mul	z0.b, p0/m, z0.b, z0.b
     d20:	000007e1 	.inst	0x000007e1 ; undefined
     d24:	00000079 	.inst	0x00000079 ; undefined
     d28:	07830418 	.inst	0x07830418 ; undefined
     d2c:	00790000 	.inst	0x00790000 ; undefined
     d30:	001c0000 	.inst	0x001c0000 ; undefined
     d34:	04060805 	.inst	0x04060805 ; undefined
     d38:	746e6905 	.inst	0x746e6905 ; undefined
     d3c:	077b0200 	.inst	0x077b0200 ; undefined
     d40:	63020000 	.inst	0x63020000 ; undefined
     d44:	0000002d 	.inst	0x0000002d ; undefined
     d48:	b9050807 	str	w7, [x0, #1288]
     d4c:	07000006 	.inst	0x07000006 ; undefined
     d50:	067e0708 	.inst	0x067e0708 ; undefined
     d54:	04070000 	.inst	0x04070000 ; undefined
     d58:	00068307 	.inst	0x00068307 ; undefined
     d5c:	07360800 	.inst	0x07360800 ; undefined
     d60:	7d010000 	str	h0, [x0, #128]
     d64:	00000079 	.inst	0x00000079 ; undefined
     d68:	00080b10 	.inst	0x00080b10 ; undefined
     d6c:	00000000 	.inst	0x00000000 ; undefined
     d70:	000000d0 	.inst	0x000000d0 ; undefined
     d74:	00000000 	.inst	0x00000000 ; undefined
     d78:	01479c01 	.inst	0x01479c01 ; undefined
     d7c:	c3090000 	.inst	0xc3090000 ; undefined
     d80:	01000007 	.inst	0x01000007 ; undefined
     d84:	0001477d 	.inst	0x0001477d ; undefined
     d88:	000f0500 	.inst	0x000f0500 ; undefined
     d8c:	620b0a00 	.inst	0x620b0a00 ; undefined
     d90:	01006675 	.inst	0x01006675 ; undefined
     d94:	0001597e 	.inst	0x0001597e ; undefined
     d98:	c0910300 	.inst	0xc0910300 ; undefined
     d9c:	07b20c76 	.inst	0x07b20c76 ; undefined
     da0:	7f010000 	.inst	0x7f010000 ; undefined
     da4:	00000079 	.inst	0x00000079 ; undefined
     da8:	00000f51 	.inst	0x00000f51 ; undefined
     dac:	0070610b 	.inst	0x0070610b ; undefined
     db0:	00808001 	.inst	0x00808001 ; undefined
     db4:	91030000 	add	x0, x0, #0xc0
     db8:	bd0c76a0 	str	s0, [x21, #3188]
     dbc:	01000007 	.inst	0x01000007 ; undefined
     dc0:	00007984 	.inst	0x00007984 ; undefined
     dc4:	000f9b00 	.inst	0x000f9b00 ; undefined
     dc8:	0ba80d00 	.inst	0x0ba80d00 ; undefined
     dcc:	00000008 	.inst	0x00000008 ; undefined
     dd0:	02060000 	.inst	0x02060000 ; undefined
     dd4:	01390000 	.inst	0x01390000 ; undefined
     dd8:	010e0000 	.inst	0x010e0000 ; undefined
     ddc:	f08f0350 	adrp	x16, ffffffff1e06b000 <__bss_end__+0xffffffff1dfea0c0>
     de0:	51010e00 	sub	w0, w16, #0x43
     de4:	04000a03 	add	z3.b, p2/m, z3.b, z16.b
     de8:	0352010e 	.inst	0x0352010e ; undefined
     dec:	0e5001f3 	.inst	0x0e5001f3 ; undefined
     df0:	8f025301 	.inst	0x8f025301 ; undefined
     df4:	c00f0030 	.inst	0xc00f0030 ; undefined
     df8:	0000080b 	.inst	0x0000080b ; undefined
     dfc:	f6000000 	.inst	0xf6000000 ; undefined
     e00:	00000005 	.inst	0x00000005 ; undefined
     e04:	01540810 	.inst	0x01540810 ; undefined
     e08:	01070000 	.inst	0x01070000 ; undefined
     e0c:	00085008 	.inst	0x00085008 ; undefined
     e10:	014d1100 	.inst	0x014d1100 ; undefined
     e14:	4d120000 	.inst	0x4d120000 ; undefined
     e18:	6a000001 	ands	w1, w0, w0
     e1c:	13000001 	sbfx	w1, w0, #0, #1
     e20:	00000092 	.inst	0x00000092 ; undefined
     e24:	080003ff 	stxrb	w0, wzr, [sp]
     e28:	00000734 	.inst	0x00000734 ; undefined
     e2c:	00797201 	.inst	0x00797201 ; undefined
     e30:	0a900000 	and	w0, w0, w16, asr #0
     e34:	00000008 	.inst	0x00000008 ; undefined
     e38:	00800000 	.inst	0x00800000 ; undefined
     e3c:	00000000 	.inst	0x00000000 ; undefined
     e40:	9c010000 	ldr	q0, 2e40 <_start-0x7d1c0>
     e44:	00000200 	.inst	0x00000200 ; undefined
     e48:	66756214 	.inst	0x66756214 ; undefined
     e4c:	00720100 	.inst	0x00720100 ; undefined
     e50:	e5000002 	.inst	0xe5000002 ; undefined
     e54:	0900000f 	.inst	0x0900000f ; undefined
     e58:	000007d9 	.inst	0x000007d9 ; undefined
     e5c:	00797201 	.inst	0x00797201 ; undefined
     e60:	101e0000 	adr	x0, 3ce60 <_start-0x431a0>
     e64:	c3090000 	.inst	0xc3090000 ; undefined
     e68:	01000007 	.inst	0x01000007 ; undefined
     e6c:	00014772 	.inst	0x00014772 ; undefined
     e70:	00105700 	.inst	0x00105700 ; undefined
     e74:	bd0c0a00 	str	s0, [x16, #3080]
     e78:	01000007 	.inst	0x01000007 ; undefined
     e7c:	00007973 	.inst	0x00007973 ; undefined
     e80:	00109000 	.inst	0x00109000 ; undefined
     e84:	70610b00 	adr	x0, c2fe7 <__bss_end__+0x420a7>
     e88:	80740100 	.inst	0x80740100 ; undefined
     e8c:	03000000 	.inst	0x03000000 ; undefined
     e90:	157eb091 	b	5fad0d4 <__bss_end__+0x5f2c194>
     e94:	00080b08 	.inst	0x00080b08 ; undefined
     e98:	00000000 	.inst	0x00000000 ; undefined
     e9c:	00000206 	.inst	0x00000206 ; undefined
     ea0:	0350010e 	.inst	0x0350010e ; undefined
     ea4:	0e5001f3 	.inst	0x0e5001f3 ; undefined
     ea8:	f3035101 	.inst	0xf3035101 ; undefined
     eac:	010e5101 	.inst	0x010e5101 ; undefined
     eb0:	01f30352 	.inst	0x01f30352 ; undefined
     eb4:	53010e52 	ubfx	w18, w18, #1, #3
     eb8:	00108f02 	.inst	0x00108f02 ; undefined
     ebc:	4d081000 	.inst	0x4d081000 ; undefined
     ec0:	08000001 	stxrb	w0, w1, [x0]
     ec4:	00000733 	.inst	0x00000733 ; undefined
     ec8:	00793001 	.inst	0x00793001 ; undefined
     ecc:	075c0000 	.inst	0x075c0000 ; undefined
     ed0:	00000008 	.inst	0x00000008 ; undefined
     ed4:	03340000 	.inst	0x03340000 ; undefined
     ed8:	00000000 	.inst	0x00000000 ; undefined
     edc:	9c010000 	ldr	q0, 2edc <_start-0x7d124>
     ee0:	00000396 	.inst	0x00000396 ; undefined
     ee4:	66756214 	.inst	0x66756214 ; undefined
     ee8:	00300100 	.inst	0x00300100 ; NYI
     eec:	c7000002 	.inst	0xc7000002 ; undefined
     ef0:	09000010 	.inst	0x09000010 ; undefined
     ef4:	000007d9 	.inst	0x000007d9 ; undefined
     ef8:	00793001 	.inst	0x00793001 ; undefined
     efc:	11130000 	add	w0, w0, #0x4c0
     f00:	c3090000 	.inst	0xc3090000 ; undefined
     f04:	01000007 	.inst	0x01000007 ; undefined
     f08:	00014730 	.inst	0x00014730 ; undefined
     f0c:	00115f00 	.inst	0x00115f00 ; undefined
     f10:	07ad1600 	.inst	0x07ad1600 ; undefined
     f14:	30010000 	adr	x0, 2f15 <_start-0x7d0eb>
     f18:	00000080 	.inst	0x00000080 ; undefined
     f1c:	0c008802 	st2	{v2.2s, v3.2s}, [x0]
     f20:	000007bd 	.inst	0x000007bd ; undefined
     f24:	00793201 	.inst	0x00793201 ; undefined
     f28:	129f0000 	mov	w0, #0xffff07ff            	// #-63489
     f2c:	650c0000 	.inst	0x650c0000 ; undefined
     f30:	01000007 	.inst	0x01000007 ; undefined
     f34:	00007933 	.inst	0x00007933 ; undefined
     f38:	00135b00 	.inst	0x00135b00 ; undefined
     f3c:	07b01700 	.inst	0x07b01700 ; undefined
     f40:	00000008 	.inst	0x00000008 ; undefined
     f44:	02c40000 	.inst	0x02c40000 ; undefined
     f48:	00000000 	.inst	0x00000000 ; undefined
     f4c:	700b0000 	adr	x0, 16f4f <_start-0x690b1>
     f50:	01007274 	.inst	0x01007274 ; undefined
     f54:	0001473d 	.inst	0x0001473d ; undefined
     f58:	78910200 	ldursh	x0, [x16, #-240]
     f5c:	00082b0c 	.inst	0x00082b0c ; undefined
     f60:	793e0100 	strh	w0, [x8, #7936]
     f64:	f1000000 	subs	x0, x0, #0x0
     f68:	0d000013 	st1	{v19.b}[0], [x0]
     f6c:	000807dc 	.inst	0x000807dc ; undefined
     f70:	00000000 	.inst	0x00000000 ; undefined
     f74:	00000601 	.inst	0x00000601 ; undefined
     f78:	000002cd 	.inst	0x000002cd ; undefined
     f7c:	0250010e 	.inst	0x0250010e ; undefined
     f80:	010e0087 	.inst	0x010e0087 ; undefined
     f84:	f88f0351 	prfum	pstl1strm, [x26, #240]
     f88:	8c0d0000 	.inst	0x8c0d0000 ; undefined
     f8c:	00000808 	.inst	0x00000808 ; undefined
     f90:	0c000000 	st4	{v0.8b-v3.8b}, [x0]
     f94:	eb000006 	subs	x6, x0, x0
     f98:	0e000002 	tbl	v2.8b, {v0.16b}, v0.8b
     f9c:	86025001 	.inst	0x86025001 ; undefined
     fa0:	52010e00 	eor	w0, w16, #0x80000007
     fa4:	00008502 	.inst	0x00008502 ; undefined
     fa8:	0808ec0d 	stlxrb	w8, w13, [x0]
     fac:	00000000 	.inst	0x00000000 ; undefined
     fb0:	00060c00 	.inst	0x00060c00 ; undefined
     fb4:	00031600 	.inst	0x00031600 ; undefined
     fb8:	50010e00 	adr	x0, 317a <_start-0x7ce86>
     fbc:	0e008602 	.inst	0x0e008602 ; undefined
     fc0:	03095101 	.inst	0x03095101 ; undefined
     fc4:	00080ef0 	.inst	0x00080ef0 ; undefined
     fc8:	00000000 	.inst	0x00000000 ; undefined
     fcc:	0252010e 	.inst	0x0252010e ; undefined
     fd0:	0d000085 	st1	{v5.b}[0], [x4]
     fd4:	00080924 	.inst	0x00080924 ; undefined
     fd8:	00000000 	.inst	0x00000000 ; undefined
     fdc:	00000475 	.inst	0x00000475 ; undefined
     fe0:	00000333 	.inst	0x00000333 ; undefined
     fe4:	0153010e 	.inst	0x0153010e ; undefined
     fe8:	54010e40 	b.eq	31b0 <_start-0x7ce50>  // b.none
     fec:	007e8402 	.inst	0x007e8402 ; undefined
     ff0:	08099c0d 	stlxrb	w9, w13, [x0]
     ff4:	00000000 	.inst	0x00000000 ; undefined
     ff8:	00039600 	.inst	0x00039600 ; undefined
     ffc:	00035000 	.inst	0x00035000 ; undefined
    1000:	53010e00 	ubfx	w0, w16, #1, #3
    1004:	010e3a01 	.inst	0x010e3a01 ; undefined
    1008:	00840254 	.inst	0x00840254 ; undefined
    100c:	09f80d00 	.inst	0x09f80d00 ; undefined
    1010:	00000008 	.inst	0x00000008 ; undefined
    1014:	060c0000 	.inst	0x060c0000 ; undefined
    1018:	037b0000 	.inst	0x037b0000 ; undefined
    101c:	010e0000 	.inst	0x010e0000 ; undefined
    1020:	00860250 	.inst	0x00860250 ; undefined
    1024:	0951010e 	.inst	0x0951010e ; undefined
    1028:	080ef003 	stlxrb	w14, w3, [x0]
    102c:	00000000 	.inst	0x00000000 ; undefined
    1030:	52010e00 	eor	w0, w16, #0x80000007
    1034:	00008502 	.inst	0x00008502 ; undefined
    1038:	080a3015 	stxrb	w10, w21, [x0]
    103c:	00000000 	.inst	0x00000000 ; undefined
    1040:	00047500 	.inst	0x00047500 ; undefined
    1044:	53010e00 	ubfx	w0, w16, #1, #3
    1048:	010e4001 	.inst	0x010e4001 ; undefined
    104c:	00840254 	.inst	0x00840254 ; undefined
    1050:	08000000 	stxrb	w0, w0, [x0]
    1054:	0000073f 	.inst	0x0000073f ; undefined
    1058:	00792801 	.inst	0x00792801 ; undefined
    105c:	071c0000 	.inst	0x071c0000 ; undefined
    1060:	00000008 	.inst	0x00000008 ; undefined
    1064:	00400000 	.inst	0x00400000 ; undefined
    1068:	00000000 	.inst	0x00000000 ; undefined
    106c:	9c010000 	ldr	q0, 306c <_start-0x7cf94>
    1070:	00000475 	.inst	0x00000475 ; undefined
    1074:	66756214 	.inst	0x66756214 ; undefined
    1078:	00280100 	.inst	0x00280100 ; NYI
    107c:	3a000002 	adcs	w2, w0, w0
    1080:	09000014 	.inst	0x09000014 ; undefined
    1084:	000007d9 	.inst	0x000007d9 ; undefined
    1088:	00792801 	.inst	0x00792801 ; undefined
    108c:	14b10000 	b	2c4108c <__bss_end__+0x2bc014c>
    1090:	76140000 	.inst	0x76140000 ; undefined
    1094:	01006c61 	.inst	0x01006c61 ; undefined
    1098:	00007928 	.inst	0x00007928 ; undefined
    109c:	00152800 	.inst	0x00152800 ; undefined
    10a0:	07490900 	.inst	0x07490900 ; undefined
    10a4:	28010000 	stnp	w0, w0, [x0, #8]
    10a8:	00000079 	.inst	0x00000079 ; undefined
    10ac:	000015a0 	.inst	0x000015a0 ; undefined
    10b0:	00078d09 	.inst	0x00078d09 ; undefined
    10b4:	79280100 	strh	w0, [x8, #5120]
    10b8:	02000000 	.inst	0x02000000 ; undefined
    10bc:	0d000016 	st1	{v22.b}[0], [x0]
    10c0:	00080730 	.inst	0x00080730 ; undefined
    10c4:	00000000 	.inst	0x00000000 ; undefined
    10c8:	00000475 	.inst	0x00000475 ; undefined
    10cc:	0000043d 	.inst	0x0000043d ; undefined
    10d0:	0350010e 	.inst	0x0350010e ; undefined
    10d4:	0e5001f3 	.inst	0x0e5001f3 ; undefined
    10d8:	f3035101 	.inst	0xf3035101 ; undefined
    10dc:	010e5101 	.inst	0x010e5101 ; undefined
    10e0:	01f30952 	.inst	0x01f30952 ; undefined
    10e4:	24200852 	cmphi	p2.b, p2/z, z2.b, #0
    10e8:	0e262008 	ssubl	v8.8h, v0.8b, v6.8b
    10ec:	f3035301 	.inst	0xf3035301 ; undefined
    10f0:	010e5301 	.inst	0x010e5301 ; undefined
    10f4:	01f30354 	.inst	0x01f30354 ; undefined
    10f8:	54150054 	.inst	0x54150054 ; undefined
    10fc:	00000807 	.inst	0x00000807 ; undefined
    1100:	75000000 	.inst	0x75000000 ; undefined
    1104:	0e000004 	tbl	v4.8b, {v0.16b}, v0.8b
    1108:	f3055001 	.inst	0xf3055001 ; undefined
    110c:	01235001 	.inst	0x01235001 ; undefined
    1110:	0551010e 	mov	z14.h, p1/z, #8
    1114:	315101f3 	adds	w19, w15, #0x440, lsl #12
    1118:	52010e1c 	eor	w28, w16, #0x80000007
    111c:	5201f30a 	eor	w10, w24, #0xaaaaaaaa
    1120:	2420081f 	cmphi	p15.b, p2/z, z0.b, #0
    1124:	0e262008 	ssubl	v8.8h, v0.8b, v6.8b
    1128:	f3055401 	.inst	0xf3055401 ; undefined
    112c:	1c315401 	ldr	s1, 63bac <_start-0x1c454>
    1130:	3d080000 	str	b0, [x0, #512]
    1134:	01000007 	.inst	0x01000007 ; undefined
    1138:	00007919 	.inst	0x00007919 ; undefined
    113c:	08063c00 	stxrb	w6, w0, [x0]
    1140:	00000000 	.inst	0x00000000 ; undefined
    1144:	0000e000 	.inst	0x0000e000 ; undefined
    1148:	00000000 	.inst	0x00000000 ; undefined
    114c:	5e9c0100 	.inst	0x5e9c0100 ; undefined
    1150:	14000005 	b	1164 <_start-0x7ee9c>
    1154:	00667562 	.inst	0x00667562 ; undefined
    1158:	02001901 	.inst	0x02001901 ; undefined
    115c:	16790000 	b	fffffffff9e4115c <__bss_end__+0xfffffffff9dc021c>
    1160:	d9090000 	.inst	0xd9090000 ; undefined
    1164:	01000007 	.inst	0x01000007 ; undefined
    1168:	00007919 	.inst	0x00007919 ; undefined
    116c:	0016d800 	.inst	0x0016d800 ; undefined
    1170:	61761400 	.inst	0x61761400 ; undefined
    1174:	1901006c 	.inst	0x1901006c ; undefined
    1178:	00000092 	.inst	0x00000092 ; undefined
    117c:	00001737 	.inst	0x00001737 ; undefined
    1180:	00074909 	.inst	0x00074909 ; undefined
    1184:	79190100 	strh	w0, [x8, #3200]
    1188:	80000000 	.inst	0x80000000 ; undefined
    118c:	09000017 	.inst	0x09000017 ; undefined
    1190:	0000078d 	.inst	0x0000078d ; undefined
    1194:	00791901 	.inst	0x00791901 ; undefined
    1198:	17df0000 	b	ffffffffff7c1198 <__bss_end__+0xffffffffff740258>
    119c:	240c0000 	cmphs	p0.b, p0/z, z0.b, z12.b
    11a0:	01000007 	.inst	0x01000007 ; undefined
    11a4:	0000991a 	.inst	0x0000991a ; undefined
    11a8:	00183e00 	.inst	0x00183e00 ; undefined
    11ac:	082b0c00 	.inst	0x082b0c00 ; undefined
    11b0:	1b010000 	madd	w0, w0, w1, w0
    11b4:	00000079 	.inst	0x00000079 ; undefined
    11b8:	00001889 	.inst	0x00001889 ; undefined
    11bc:	0007eb0c 	.inst	0x0007eb0c ; undefined
    11c0:	791c0100 	strh	w0, [x8, #3584]
    11c4:	ac000000 	stnp	q0, q0, [x0]
    11c8:	18000018 	ldr	w24, 11c8 <_start-0x7ee38>
    11cc:	00000000 	.inst	0x00000000 ; undefined
    11d0:	00000525 	.inst	0x00000525 ; undefined
    11d4:	01006919 	.inst	0x01006919 ; undefined
    11d8:	0000791f 	.inst	0x0000791f ; undefined
    11dc:	0018e200 	.inst	0x0018e200 ; undefined
    11e0:	700d0000 	adr	x0, 1b1e3 <_start-0x64e1d>
    11e4:	00000806 	.inst	0x00000806 ; undefined
    11e8:	5e000000 	sha1c	q0, s0, v0.4s
    11ec:	43000005 	.inst	0x43000005 ; undefined
    11f0:	0e000005 	tbl	v5.8b, {v0.16b}, v0.8b
    11f4:	83025001 	.inst	0x83025001 ; undefined
    11f8:	51010e00 	sub	w0, w16, #0x43
    11fc:	00008402 	.inst	0x00008402 ; undefined
    1200:	08068015 	stlxrb	w6, w21, [x0]
    1204:	00000000 	.inst	0x00000000 ; undefined
    1208:	0005ab00 	.inst	0x0005ab00 ; undefined
    120c:	51010e00 	sub	w0, w16, #0x43
    1210:	0e008602 	.inst	0x0e008602 ; undefined
    1214:	87025201 	.inst	0x87025201 ; undefined
    1218:	1a000000 	adc	w0, w0, w0
    121c:	00000717 	.inst	0x00000717 ; undefined
    1220:	00991001 	.inst	0x00991001 ; undefined
    1224:	06140000 	.inst	0x06140000 ; undefined
    1228:	00000008 	.inst	0x00000008 ; undefined
    122c:	00280000 	.inst	0x00280000 ; NYI
    1230:	00000000 	.inst	0x00000000 ; undefined
    1234:	9c010000 	ldr	q0, 3234 <_start-0x7cdcc>
    1238:	000005ab 	.inst	0x000005ab ; undefined
    123c:	6c617614 	ldnp	d20, d29, [x16, #-496]
    1240:	99100100 	.inst	0x99100100 ; undefined
    1244:	19000000 	.inst	0x19000000 ; undefined
    1248:	16000019 	b	fffffffff80012ac <__bss_end__+0xfffffffff7f8036c>
    124c:	00000749 	.inst	0x00000749 ; undefined
    1250:	00791001 	.inst	0x00791001 ; undefined
    1254:	51010000 	sub	w0, w0, #0x40
    1258:	0007bd0c 	.inst	0x0007bd0c ; undefined
    125c:	99110100 	.inst	0x99110100 ; undefined
    1260:	62000000 	.inst	0x62000000 ; undefined
    1264:	00000019 	.inst	0x00000019 ; undefined
    1268:	00076d1a 	.inst	0x00076d1a ; undefined
    126c:	99050100 	.inst	0x99050100 ; undefined
    1270:	d4000000 	.inst	0xd4000000 ; undefined
    1274:	00000805 	.inst	0x00000805 ; undefined
    1278:	40000000 	.inst	0x40000000 ; undefined
    127c:	00000000 	.inst	0x00000000 ; undefined
    1280:	01000000 	.inst	0x01000000 ; undefined
    1284:	0005f69c 	.inst	0x0005f69c ; undefined
    1288:	07eb0900 	.inst	0x07eb0900 ; undefined
    128c:	05010000 	orr	z0.s, z0.s, #0x1
    1290:	00000079 	.inst	0x00000079 ; undefined
    1294:	000019ac 	.inst	0x000019ac ; undefined
    1298:	0007d916 	.inst	0x0007d916 ; undefined
    129c:	79050100 	strh	w0, [x8, #640]
    12a0:	01000000 	.inst	0x01000000 ; undefined
    12a4:	078d1651 	.inst	0x078d1651 ; undefined
    12a8:	05010000 	orr	z0.s, z0.s, #0x1
    12ac:	00000079 	.inst	0x00000079 ; undefined
    12b0:	1b005201 	madd	w1, w16, w0, w20
    12b4:	00000797 	.inst	0x00000797 ; undefined
    12b8:	00000797 	.inst	0x00000797 ; undefined
    12bc:	d71b2403 	.inst	0xd71b2403 ; undefined
    12c0:	d7000006 	.inst	0xd7000006 ; undefined
    12c4:	04000006 	add	z6.b, p0/m, z6.b, z0.b
    12c8:	06e71b35 	.inst	0x06e71b35 ; undefined
    12cc:	06e70000 	.inst	0x06e70000 ; undefined
    12d0:	3e040000 	.inst	0x3e040000 ; undefined
    12d4:	00026500 	.inst	0x00026500 ; undefined
    12d8:	6e000400 	.inst	0x6e000400 ; undefined
    12dc:	08000005 	stxrb	w0, w5, [x0]
    12e0:	00005201 	.inst	0x00005201 ; undefined
    12e4:	08950c00 	stllrb	w0, [x0]
    12e8:	00140000 	.inst	0x00140000 ; undefined
    12ec:	0be00000 	.inst	0x0be00000 ; undefined
    12f0:	00000008 	.inst	0x00000008 ; undefined
    12f4:	00e80000 	.inst	0x00e80000 ; undefined
    12f8:	00000000 	.inst	0x00000000 ; undefined
    12fc:	03bf0000 	.inst	0x03bf0000 ; undefined
    1300:	01020000 	.inst	0x01020000 ; undefined
    1304:	00084906 	.inst	0x00084906 ; undefined
    1308:	05020200 	orr	z0.d, z0.d, #0x1ffff
    130c:	000008a1 	.inst	0x000008a1 ; undefined
    1310:	69050403 	.inst	0x69050403 ; undefined
    1314:	0200746e 	.inst	0x0200746e ; undefined
    1318:	06b90508 	.inst	0x06b90508 ; undefined
    131c:	01020000 	.inst	0x01020000 ; undefined
    1320:	00084708 	.inst	0x00084708 ; undefined
    1324:	07020200 	.inst	0x07020200 ; undefined
    1328:	00000855 	.inst	0x00000855 ; undefined
    132c:	83070402 	.inst	0x83070402 ; undefined
    1330:	02000006 	.inst	0x02000006 ; undefined
    1334:	067e0708 	.inst	0x067e0708 ; undefined
    1338:	11040000 	add	w0, w0, #0x100
    133c:	03000008 	.inst	0x03000008 ; undefined
    1340:	00005e56 	.inst	0x00005e56 ; undefined
    1344:	02180500 	.inst	0x02180500 ; undefined
    1348:	00009d20 	.inst	0x00009d20 ; undefined
    134c:	08d90600 	ldlarb	w0, [x16]
    1350:	21020000 	.inst	0x21020000 ; undefined
    1354:	0000009d 	.inst	0x0000009d ; undefined
    1358:	08320600 	.inst	0x08320600 ; undefined
    135c:	22020000 	.inst	0x22020000 ; undefined
    1360:	00000065 	.inst	0x00000065 ; undefined
    1364:	08240608 	.inst	0x08240608 ; undefined
    1368:	23020000 	.inst	0x23020000 ; undefined
    136c:	0000003b 	.inst	0x0000003b ; undefined
    1370:	08070010 	stxrb	w7, w16, [x0]
    1374:	000000a3 	.inst	0x000000a3 ; undefined
    1378:	50080102 	adr	x2, 1139a <_start-0x6ec66>
    137c:	08000008 	stxrb	w0, w8, [x0]
    1380:	000000a3 	.inst	0x000000a3 ; undefined
    1384:	0007f704 	.inst	0x0007f704 ; undefined
    1388:	70240200 	adr	x0, 493cb <_start-0x36c35>
    138c:	09000000 	.inst	0x09000000 ; undefined
    1390:	08d10a08 	ldlarb	w8, [x16]
    1394:	04010000 	sub	z0.b, p0/m, z0.b, z0.b
    1398:	000000c7 	.inst	0x000000c7 ; undefined
    139c:	00aa0807 	.inst	0x00aa0807 ; undefined
    13a0:	20050000 	.inst	0x20050000 ; undefined
    13a4:	01060601 	.inst	0x01060601 ; undefined
    13a8:	1b060000 	madd	w0, w0, w6, w0
    13ac:	01000008 	.inst	0x01000008 ; undefined
    13b0:	00005e08 	.inst	0x00005e08 ; undefined
    13b4:	3e060000 	.inst	0x3e060000 ; undefined
    13b8:	01000008 	.inst	0x01000008 ; undefined
    13bc:	00005e09 	.inst	0x00005e09 ; undefined
    13c0:	68060800 	.inst	0x68060800 ; undefined
    13c4:	01000008 	.inst	0x01000008 ; undefined
    13c8:	00005e0a 	.inst	0x00005e0a ; undefined
    13cc:	71061000 	subs	w0, w0, #0x184
    13d0:	01000008 	.inst	0x01000008 ; undefined
    13d4:	00005e0b 	.inst	0x00005e0b ; undefined
    13d8:	04001800 	add	z0.b, p6/m, z0.b, z0.b
    13dc:	000007ff 	.inst	0x000007ff ; undefined
    13e0:	00cd0c01 	.inst	0x00cd0c01 ; undefined
    13e4:	b2040000 	orr	x0, x0, #0x1000000010000000
    13e8:	01000008 	.inst	0x01000008 ; undefined
    13ec:	00011c0e 	.inst	0x00011c0e ; undefined
    13f0:	06080700 	.inst	0x06080700 ; undefined
    13f4:	0b000001 	add	w1, w0, w0
    13f8:	00000885 	.inst	0x00000885 ; undefined
    13fc:	0ca02a01 	.inst	0x0ca02a01 ; undefined
    1400:	00000008 	.inst	0x00000008 ; undefined
    1404:	00280000 	.inst	0x00280000 ; NYI
    1408:	00000000 	.inst	0x00000000 ; undefined
    140c:	9c010000 	ldr	q0, 340c <_start-0x7cbf4>
    1410:	0000017e 	.inst	0x0000017e ; undefined
    1414:	0100660c 	.inst	0x0100660c ; undefined
    1418:	00017e2c 	.inst	0x00017e2c ; undefined
    141c:	90910300 	adrp	x0, ffffffff22061000 <__bss_end__+0xffffffff21fe00c0>
    1420:	0cb40d7e 	.inst	0x0cb40d7e ; undefined
    1424:	00000008 	.inst	0x00000008 ; undefined
    1428:	01fa0000 	.inst	0x01fa0000 ; undefined
    142c:	01690000 	.inst	0x01690000 ; undefined
    1430:	010e0000 	.inst	0x010e0000 ; undefined
    1434:	108f0250 	adr	x16, fffffffffff1f47c <__bss_end__+0xffffffffffe9e53c>
    1438:	0151010e 	.inst	0x0151010e ; undefined
    143c:	c00f003a 	.inst	0xc00f003a ; undefined
    1440:	0000080c 	.inst	0x0000080c ; undefined
    1444:	8e000000 	.inst	0x8e000000 ; undefined
    1448:	0e000001 	tbl	v1.8b, {v0.16b}, v0.8b
    144c:	8f025001 	.inst	0x8f025001 ; undefined
    1450:	10000010 	adr	x16, 1450 <_start-0x7ebb0>
    1454:	000000af 	.inst	0x000000af ; undefined
    1458:	0000018e 	.inst	0x0000018e ; undefined
    145c:	00005e11 	.inst	0x00005e11 ; undefined
    1460:	0b000900 	add	w0, w8, w0, lsl #2
    1464:	000008c4 	.inst	0x000008c4 ; undefined
    1468:	0c382301 	.inst	0x0c382301 ; undefined
    146c:	00000008 	.inst	0x00000008 ; undefined
    1470:	00680000 	.inst	0x00680000 ; undefined
    1474:	00000000 	.inst	0x00000000 ; undefined
    1478:	9c010000 	ldr	q0, 3478 <_start-0x7cb88>
    147c:	000001f4 	.inst	0x000001f4 ; undefined
    1480:	01006612 	.inst	0x01006612 ; undefined
    1484:	0001f423 	.inst	0x0001f423 ; undefined
    1488:	0019e500 	.inst	0x0019e500 ; undefined
    148c:	006e1200 	.inst	0x006e1200 ; undefined
    1490:	003b2301 	.inst	0x003b2301 ; NYI
    1494:	1a310000 	.inst	0x1a310000 ; undefined
    1498:	69130000 	.inst	0x69130000 ; undefined
    149c:	3b240100 	.inst	0x3b240100 ; undefined
    14a0:	7d000000 	str	h0, [x0]
    14a4:	0f00001a 	.inst	0x0f00001a ; undefined
    14a8:	00080c84 	.inst	0x00080c84 ; undefined
    14ac:	00000000 	.inst	0x00000000 ; undefined
    14b0:	0000025d 	.inst	0x0000025d ; undefined
    14b4:	0950010e 	.inst	0x0950010e ; undefined
    14b8:	080f0003 	stxrb	w15, w3, [x0]
    14bc:	00000000 	.inst	0x00000000 ; undefined
    14c0:	51010e00 	sub	w0, w16, #0x43
    14c4:	00008302 	.inst	0x00008302 ; undefined
    14c8:	af080700 	.inst	0xaf080700 ; undefined
    14cc:	14000000 	b	14cc <_start-0x7eb34>
    14d0:	0000088b 	.inst	0x0000088b ; undefined
    14d4:	003b1201 	.inst	0x003b1201 ; NYI
    14d8:	0be00000 	.inst	0x0be00000 ; undefined
    14dc:	00000008 	.inst	0x00000008 ; undefined
    14e0:	00580000 	.inst	0x00580000 ; undefined
    14e4:	00000000 	.inst	0x00000000 ; undefined
    14e8:	9c010000 	ldr	q0, 34e8 <_start-0x7cb18>
    14ec:	0000025d 	.inst	0x0000025d ; undefined
    14f0:	01006612 	.inst	0x01006612 ; undefined
    14f4:	0001f412 	.inst	0x0001f412 ; undefined
    14f8:	001ab400 	.inst	0x001ab400 ; undefined
    14fc:	087a1500 	.inst	0x087a1500 ; undefined
    1500:	12010000 	and	w0, w0, #0x80000000
    1504:	0000003b 	.inst	0x0000003b ; undefined
    1508:	ab165101 	adds	x1, x8, x22, lsl #20
    150c:	01000008 	.inst	0x01000008 ; undefined
    1510:	0000ba13 	.inst	0x0000ba13 ; undefined
    1514:	001aea00 	.inst	0x001aea00 ; undefined
    1518:	00691300 	.inst	0x00691300 ; undefined
    151c:	003b1401 	.inst	0x003b1401 ; NYI
    1520:	1b0d0000 	madd	w0, w0, w13, w0
    1524:	740c0000 	.inst	0x740c0000 ; undefined
    1528:	11170100 	add	w0, w8, #0x5c0
    152c:	01000001 	.inst	0x01000001 ; undefined
    1530:	36170053 	tbz	w19, #2, fffffffffffff538 <__bss_end__+0xfffffffffff7e5f8>
    1534:	36000007 	tbz	w7, #0, 1534 <_start-0x7eacc>
    1538:	04000007 	add	z7.b, p0/m, z7.b, z0.b
    153c:	03bf003e 	.inst	0x03bf003e ; undefined
    1540:	00040000 	.inst	0x00040000 ; undefined
    1544:	000006ad 	.inst	0x000006ad ; undefined
    1548:	02820108 	.inst	0x02820108 ; undefined
    154c:	3d0c0000 	str	b0, [x0, #768]
    1550:	14000009 	b	1574 <_start-0x7ea8c>
    1554:	c8000000 	stxr	w0, x0, [x0]
    1558:	0000080c 	.inst	0x0000080c ; undefined
    155c:	0c000000 	st4	{v0.8b-v3.8b}, [x0]
    1560:	00000001 	.inst	0x00000001 ; undefined
    1564:	b0000000 	adrp	x0, 2000 <_start-0x7e000>
    1568:	02000004 	.inst	0x02000004 ; undefined
    156c:	018b0407 	.inst	0x018b0407 ; undefined
    1570:	18020000 	ldr	w0, 5570 <_start-0x7aa90>
    1574:	0000018b 	.inst	0x0000018b ; undefined
    1578:	00042d03 	.inst	0x00042d03 ; undefined
    157c:	95030000 	bl	40c157c <__bss_end__+0x404063c>
    1580:	00000004 	.inst	0x00000004 ; undefined
    1584:	00049f03 	.inst	0x00049f03 ; undefined
    1588:	a9030100 	stp	x0, x0, [x8, #48]
    158c:	02000004 	.inst	0x02000004 ; undefined
    1590:	0004b303 	.inst	0x0004b303 ; undefined
    1594:	bd030300 	str	s0, [x24, #768]
    1598:	04000004 	add	z4.b, p0/m, z4.b, z0.b
    159c:	0004c703 	.inst	0x0004c703 ; undefined
    15a0:	d1030500 	sub	x0, x8, #0xc1
    15a4:	06000004 	.inst	0x06000004 ; undefined
    15a8:	0004db03 	.inst	0x0004db03 ; undefined
    15ac:	e5030700 	.inst	0xe5030700 ; undefined
    15b0:	08000004 	stxrb	w0, w4, [x0]
    15b4:	0004ef03 	.inst	0x0004ef03 ; undefined
    15b8:	4a030900 	eor	w0, w8, w3, lsl #2
    15bc:	0a000003 	and	w3, w0, w0
    15c0:	00035503 	.inst	0x00035503 ; undefined
    15c4:	60030b00 	.inst	0x60030b00 ; undefined
    15c8:	0c000003 	st4	{v3.8b-v6.8b}, [x0]
    15cc:	00036b03 	.inst	0x00036b03 ; undefined
    15d0:	76030d00 	.inst	0x76030d00 ; undefined
    15d4:	0e000003 	tbl	v3.8b, {v0.16b}, v0.8b
    15d8:	00038103 	.inst	0x00038103 ; undefined
    15dc:	8c030f00 	.inst	0x8c030f00 ; undefined
    15e0:	10000003 	adr	x3, 15e0 <_start-0x7ea20>
    15e4:	00039703 	.inst	0x00039703 ; undefined
    15e8:	a2031100 	.inst	0xa2031100 ; undefined
    15ec:	12000003 	and	w3, w0, #0x1
    15f0:	0003ad03 	.inst	0x0003ad03 ; undefined
    15f4:	03031300 	.inst	0x03031300 ; undefined
    15f8:	14000005 	b	160c <_start-0x7e9f4>
    15fc:	00050e03 	.inst	0x00050e03 ; undefined
    1600:	19031500 	.inst	0x19031500 ; undefined
    1604:	16000005 	b	fffffffff8001618 <__bss_end__+0xfffffffff7f806d8>
    1608:	00052403 	.inst	0x00052403 ; undefined
    160c:	2f031700 	bic	v0.2s, #0x78
    1610:	18000005 	ldr	w5, 1610 <_start-0x7e9f0>
    1614:	00053a03 	.inst	0x00053a03 ; undefined
    1618:	45031900 	.inst	0x45031900 ; undefined
    161c:	1a000005 	adc	w5, w0, w0
    1620:	00055003 	.inst	0x00055003 ; undefined
    1624:	5b031b00 	.inst	0x5b031b00 ; undefined
    1628:	1c000005 	ldr	s5, 1628 <_start-0x7e9d8>
    162c:	00056603 	.inst	0x00056603 ; undefined
    1630:	24031d00 	cmphs	p0.b, p7/z, z8.b, z3.b
    1634:	1e000001 	.inst	0x1e000001 ; undefined
    1638:	00012f03 	.inst	0x00012f03 ; undefined
    163c:	3a031f00 	.inst	0x3a031f00 ; undefined
    1640:	20000001 	.inst	0x20000001 ; undefined
    1644:	00014503 	.inst	0x00014503 ; undefined
    1648:	50032100 	adr	x0, 7a6a <_start-0x78596>
    164c:	22000001 	.inst	0x22000001 ; undefined
    1650:	00015b03 	.inst	0x00015b03 ; undefined
    1654:	66032300 	.inst	0x66032300 ; undefined
    1658:	24000001 	cmphs	p1.b, p0/z, z0.b, z0.b
    165c:	00017103 	.inst	0x00017103 ; undefined
    1660:	7c032500 	str	h0, [x8], #50
    1664:	26000001 	.inst	0x26000001 ; undefined
    1668:	0001cb03 	.inst	0x0001cb03 ; undefined
    166c:	f0032700 	adrp	x0, 64e4000 <__bss_end__+0x64630c0>
    1670:	28000001 	stnp	w1, w0, [x0]
    1674:	0001fb03 	.inst	0x0001fb03 ; undefined
    1678:	06032900 	.inst	0x06032900 ; undefined
    167c:	2a000002 	orr	w2, w0, w0
    1680:	00021103 	.inst	0x00021103 ; undefined
    1684:	1c032b00 	ldr	s0, 7be4 <_start-0x7841c>
    1688:	2c000002 	stnp	s2, s0, [x0]
    168c:	00022703 	.inst	0x00022703 ; undefined
    1690:	32032d00 	orr	w0, w8, #0xe00001ff
    1694:	2e000002 	ext	v2.8b, v0.8b, v0.8b, #0
    1698:	00023d03 	.inst	0x00023d03 ; undefined
    169c:	48032f00 	stxrh	w3, w0, [x24]
    16a0:	30000002 	adr	x2, 16a1 <_start-0x7e95f>
    16a4:	00025303 	.inst	0x00025303 ; undefined
    16a8:	f2033100 	ands	x0, x8, #0xe00003ffe00003ff
    16ac:	32000003 	orr	w3, w0, #0x1
    16b0:	0003fd03 	.inst	0x0003fd03 ; undefined
    16b4:	08033300 	stxrb	w3, w0, [x24]
    16b8:	34000004 	cbz	w4, 16b8 <_start-0x7e948>
    16bc:	00041303 	.inst	0x00041303 ; undefined
    16c0:	bd033500 	str	s0, [x8, #820]
    16c4:	35000001 	cbnz	w1, 16c4 <_start-0x7e93c>
    16c8:	07040400 	.inst	0x07040400 ; undefined
    16cc:	00000683 	.inst	0x00000683 ; undefined
    16d0:	8b040702 	add	x2, x24, x4, lsl #1
    16d4:	02000001 	.inst	0x02000001 ; undefined
    16d8:	0001d05d 	.inst	0x0001d05d ; undefined
    16dc:	02720300 	.inst	0x02720300 ; undefined
    16e0:	03000000 	.inst	0x03000000 ; undefined
    16e4:	00000103 	.inst	0x00000103 ; undefined
    16e8:	041e0301 	.inst	0x041e0301 ; undefined
    16ec:	03040000 	.inst	0x03040000 ; undefined
    16f0:	000000db 	.inst	0x000000db ; undefined
    16f4:	043c0305 	add	z5.b, z24.b, z28.b
    16f8:	03060000 	.inst	0x03060000 ; undefined
    16fc:	0000025e 	.inst	0x0000025e ; undefined
    1700:	01870307 	.inst	0x01870307 ; undefined
    1704:	03030000 	.inst	0x03030000 ; undefined
    1708:	00000196 	.inst	0x00000196 ; undefined
    170c:	01040002 	.inst	0x01040002 ; undefined
    1710:	00084906 	.inst	0x00084906 ; undefined
    1714:	05020400 	orr	z0.d, z0.d, #0x1ffffffff
    1718:	000008a1 	.inst	0x000008a1 ; undefined
    171c:	69050405 	.inst	0x69050405 ; undefined
    1720:	0400746e 	mls	z14.b, p5/m, z3.b, z0.b
    1724:	06b90508 	.inst	0x06b90508 ; undefined
    1728:	01040000 	.inst	0x01040000 ; undefined
    172c:	00084708 	.inst	0x00084708 ; undefined
    1730:	07020400 	.inst	0x07020400 ; undefined
    1734:	00000855 	.inst	0x00000855 ; undefined
    1738:	00091c06 	.inst	0x00091c06 ; undefined
    173c:	8b340300 	add	x0, x24, w20, uxtb
    1740:	04000001 	add	z1.b, p0/m, z1.b, z0.b
    1744:	067e0708 	.inst	0x067e0708 ; undefined
    1748:	12070000 	and	w0, w0, #0x2000000
    174c:	2c000009 	stnp	s9, s0, [x0]
    1750:	029d0a01 	.inst	0x029d0a01 ; undefined
    1754:	fb080000 	.inst	0xfb080000 ; undefined
    1758:	01000008 	.inst	0x01000008 ; undefined
    175c:	0001fa0b 	.inst	0x0001fa0b ; undefined
    1760:	69090000 	.inst	0x69090000 ; undefined
    1764:	01007265 	.inst	0x01007265 ; undefined
    1768:	0001fa0c 	.inst	0x0001fa0c ; undefined
    176c:	69090400 	.inst	0x69090400 ; undefined
    1770:	01007269 	.inst	0x01007269 ; undefined
    1774:	0001fa0d 	.inst	0x0001fa0d ; undefined
    1778:	6c090800 	stnp	d0, d2, [x0, #144]
    177c:	01007263 	.inst	0x01007263 ; undefined
    1780:	0001fa0e 	.inst	0x0001fa0e ; undefined
    1784:	6d090c00 	stp	d0, d3, [x0, #144]
    1788:	01007263 	.inst	0x01007263 ; undefined
    178c:	0001fa0f 	.inst	0x0001fa0f ; undefined
    1790:	6c091000 	stnp	d0, d4, [x0, #144]
    1794:	01007273 	.inst	0x01007273 ; undefined
    1798:	0001fa10 	.inst	0x0001fa10 ; undefined
    179c:	6d091400 	stp	d0, d5, [x0, #144]
    17a0:	01007273 	.inst	0x01007273 ; undefined
    17a4:	0001fa11 	.inst	0x0001fa11 ; undefined
    17a8:	35081800 	cbnz	w0, 11aa8 <_start-0x6e558>
    17ac:	01000009 	.inst	0x01000009 ; undefined
    17b0:	0001fa12 	.inst	0x0001fa12 ; undefined
    17b4:	49081c00 	.inst	0x49081c00 ; undefined
    17b8:	01000009 	.inst	0x01000009 ; undefined
    17bc:	0001fa13 	.inst	0x0001fa13 ; undefined
    17c0:	e9082000 	.inst	0xe9082000 ; undefined
    17c4:	01000008 	.inst	0x01000008 ; undefined
    17c8:	0001fa14 	.inst	0x0001fa14 ; undefined
    17cc:	17082400 	b	fffffffffc20a7cc <__bss_end__+0xfffffffffc18988c>
    17d0:	01000009 	.inst	0x01000009 ; undefined
    17d4:	0001fa15 	.inst	0x0001fa15 ; undefined
    17d8:	0a002800 	and	w0, w0, w0, lsl #10
    17dc:	0000020c 	.inst	0x0000020c ; undefined
    17e0:	0009000b 	.inst	0x0009000b ; undefined
    17e4:	ad2d0100 	stp	q0, q0, [x8, #-608]
    17e8:	0c000002 	st4	{v2.8b-v5.8b}, [x0]
    17ec:	00029d08 	.inst	0x00029d08 ; undefined
    17f0:	08ee0d00 	.inst	0x08ee0d00 ; undefined
    17f4:	64010000 	.inst	0x64010000 ; undefined
    17f8:	000002d0 	.inst	0x000002d0 ; undefined
    17fc:	00080dc0 	.inst	0x00080dc0 ; undefined
    1800:	00000000 	.inst	0x00000000 ; undefined
    1804:	00000014 	.inst	0x00000014 ; undefined
    1808:	00000000 	.inst	0x00000000 ; undefined
    180c:	01049c01 	.inst	0x01049c01 ; undefined
    1810:	00092f02 	.inst	0x00092f02 ; undefined
    1814:	08de0e00 	ldlarb	w0, [x16]
    1818:	60010000 	.inst	0x60010000 ; undefined
    181c:	00080dac 	.inst	0x00080dac ; undefined
    1820:	00000000 	.inst	0x00000000 ; undefined
    1824:	00000014 	.inst	0x00000014 ; undefined
    1828:	00000000 	.inst	0x00000000 ; undefined
    182c:	970f9c01 	bl	fffffffffc3e8830 <__bss_end__+0xfffffffffc3678f0>
    1830:	01000007 	.inst	0x01000007 ; undefined
    1834:	0001de56 	.inst	0x0001de56 ; undefined
    1838:	080d5c00 	stxrb	w13, w0, [x0]
    183c:	00000000 	.inst	0x00000000 ; undefined
    1840:	00005000 	.inst	0x00005000 ; undefined
    1844:	00000000 	.inst	0x00000000 ; undefined
    1848:	339c0100 	.inst	0x339c0100 ; undefined
    184c:	10000003 	adr	x3, 184c <_start-0x7e7b4>
    1850:	01006863 	.inst	0x01006863 ; undefined
    1854:	0001de56 	.inst	0x0001de56 ; undefined
    1858:	001b4400 	.inst	0x001b4400 ; undefined
    185c:	0da81100 	st2	{v0.b, v1.b}[4], [x8], x8
    1860:	00000008 	.inst	0x00000008 ; undefined
    1864:	02f00000 	.inst	0x02f00000 ; undefined
    1868:	01120000 	.inst	0x01120000 ; undefined
    186c:	003d0150 	.inst	0x003d0150 ; NYI
    1870:	09050d00 	.inst	0x09050d00 ; undefined
    1874:	51010000 	sub	w0, w0, #0x40
    1878:	000001de 	.inst	0x000001de ; undefined
    187c:	00080d38 	.inst	0x00080d38 ; undefined
    1880:	00000000 	.inst	0x00000000 ; undefined
    1884:	00000024 	.inst	0x00000024 ; undefined
    1888:	00000000 	.inst	0x00000000 ; undefined
    188c:	25139c01 	cmpeq	p1.b, p7/z, z0.b, #-13
    1890:	01000009 	.inst	0x01000009 ; undefined
    1894:	080cc83a 	stlxrb	w12, w26, [x1]
    1898:	00000000 	.inst	0x00000000 ; undefined
    189c:	00007000 	.inst	0x00007000 ; undefined
    18a0:	00000000 	.inst	0x00000000 ; undefined
    18a4:	b19c0100 	.inst	0xb19c0100 ; undefined
    18a8:	14000003 	b	18b4 <_start-0x7e74c>
    18ac:	00787561 	.inst	0x00787561 ; undefined
    18b0:	03b13f01 	.inst	0x03b13f01 ; undefined
    18b4:	50040000 	adr	x0, 98b6 <_start-0x7674a>
    18b8:	dc153f21 	.inst	0xdc153f21 ; undefined
    18bc:	0000080c 	.inst	0x0000080c ; undefined
    18c0:	b7000000 	tbnz	x0, #32, 18c0 <_start-0x7e740>
    18c4:	98000003 	ldrsw	x3, 18c4 <_start-0x7e73c>
    18c8:	12000003 	and	w3, w0, #0x1
    18cc:	3e015001 	.inst	0x3e015001 ; undefined
    18d0:	01510112 	.inst	0x01510112 ; undefined
    18d4:	e8110032 	.inst	0xe8110032 ; undefined
    18d8:	0000080c 	.inst	0x0000080c ; undefined
    18dc:	b7000000 	tbnz	x0, #32, 18dc <_start-0x7e724>
    18e0:	12000003 	and	w3, w0, #0x1
    18e4:	3f015001 	.inst	0x3f015001 ; undefined
    18e8:	01510112 	.inst	0x01510112 ; undefined
    18ec:	0c000032 	st4	{v18.8b-v21.8b}, [x1]
    18f0:	0001de08 	.inst	0x0001de08 ; undefined
    18f4:	03e01600 	.inst	0x03e01600 ; undefined
    18f8:	03e00000 	.inst	0x03e00000 ; undefined
    18fc:	7b020000 	.inst	0x7b020000 ; undefined
    1900:	0004a100 	.inst	0x0004a100 ; undefined
    1904:	03000400 	.inst	0x03000400 ; undefined
    1908:	08000008 	stxrb	w0, w8, [x0]
    190c:	00005201 	.inst	0x00005201 ; undefined
    1910:	096f0c00 	.inst	0x096f0c00 ; undefined
    1914:	00140000 	.inst	0x00140000 ; undefined
    1918:	0dd40000 	ld1	{v0.b}[0], [x0], x20
    191c:	00000008 	.inst	0x00000008 ; undefined
    1920:	01180000 	.inst	0x01180000 ; undefined
    1924:	00000000 	.inst	0x00000000 ; undefined
    1928:	058b0000 	.inst	0x058b0000 ; undefined
    192c:	04020000 	.inst	0x04020000 ; undefined
    1930:	746e6905 	.inst	0x746e6905 ; undefined
    1934:	04070300 	.inst	0x04070300 ; undefined
    1938:	00000192 	.inst	0x00000192 ; undefined
    193c:	01921802 	.inst	0x01921802 ; undefined
    1940:	2d040000 	stp	s0, s0, [x0, #32]
    1944:	00000004 	.inst	0x00000004 ; undefined
    1948:	00049504 	.inst	0x00049504 ; undefined
    194c:	9f040000 	.inst	0x9f040000 ; undefined
    1950:	01000004 	.inst	0x01000004 ; undefined
    1954:	0004a904 	.inst	0x0004a904 ; undefined
    1958:	b3040200 	.inst	0xb3040200 ; undefined
    195c:	03000004 	.inst	0x03000004 ; undefined
    1960:	0004bd04 	.inst	0x0004bd04 ; undefined
    1964:	c7040400 	.inst	0xc7040400 ; undefined
    1968:	05000004 	orr	z4.s, z4.s, #0x1
    196c:	0004d104 	.inst	0x0004d104 ; undefined
    1970:	db040600 	.inst	0xdb040600 ; undefined
    1974:	07000004 	.inst	0x07000004 ; undefined
    1978:	0004e504 	.inst	0x0004e504 ; undefined
    197c:	ef040800 	.inst	0xef040800 ; undefined
    1980:	09000004 	.inst	0x09000004 ; undefined
    1984:	00034a04 	.inst	0x00034a04 ; undefined
    1988:	55040a00 	.inst	0x55040a00 ; undefined
    198c:	0b000003 	add	w3, w0, w0
    1990:	00036004 	.inst	0x00036004 ; undefined
    1994:	6b040c00 	subs	w0, w0, w4, lsl #3
    1998:	0d000003 	st1	{v3.b}[0], [x0]
    199c:	00037604 	.inst	0x00037604 ; undefined
    19a0:	81040e00 	.inst	0x81040e00 ; undefined
    19a4:	0f000003 	.inst	0x0f000003 ; undefined
    19a8:	00038c04 	.inst	0x00038c04 ; undefined
    19ac:	97041000 	bl	fffffffffc1059ac <__bss_end__+0xfffffffffc084a6c>
    19b0:	11000003 	add	w3, w0, #0x0
    19b4:	0003a204 	.inst	0x0003a204 ; undefined
    19b8:	ad041200 	stp	q0, q4, [x16, #128]
    19bc:	13000003 	sbfx	w3, w0, #0, #1
    19c0:	00050304 	.inst	0x00050304 ; undefined
    19c4:	0e041400 	.inst	0x0e041400 ; undefined
    19c8:	15000005 	b	40019dc <__bss_end__+0x3f80a9c>
    19cc:	00051904 	.inst	0x00051904 ; undefined
    19d0:	24041600 	cmphs	p0.b, p5/z, z16.b, z4.b
    19d4:	17000005 	b	fffffffffc0019e8 <__bss_end__+0xfffffffffbf80aa8>
    19d8:	00052f04 	.inst	0x00052f04 ; undefined
    19dc:	3a041800 	.inst	0x3a041800 ; undefined
    19e0:	19000005 	.inst	0x19000005 ; undefined
    19e4:	00054504 	.inst	0x00054504 ; undefined
    19e8:	50041a00 	adr	x0, 9d2a <_start-0x762d6>
    19ec:	1b000005 	madd	w5, w0, w0, w0
    19f0:	00055b04 	.inst	0x00055b04 ; undefined
    19f4:	66041c00 	.inst	0x66041c00 ; undefined
    19f8:	1d000005 	.inst	0x1d000005 ; undefined
    19fc:	00012404 	.inst	0x00012404 ; undefined
    1a00:	2f041e00 	.inst	0x2f041e00 ; undefined
    1a04:	1f000001 	fmadd	s1, s0, s0, s0
    1a08:	00013a04 	.inst	0x00013a04 ; undefined
    1a0c:	45042000 	.inst	0x45042000 ; undefined
    1a10:	21000001 	.inst	0x21000001 ; undefined
    1a14:	00015004 	.inst	0x00015004 ; undefined
    1a18:	5b042200 	.inst	0x5b042200 ; undefined
    1a1c:	23000001 	.inst	0x23000001 ; undefined
    1a20:	00016604 	.inst	0x00016604 ; undefined
    1a24:	71042400 	subs	w0, w0, #0x109
    1a28:	25000001 	cmpge	p1.b, p0/z, z0.b, #0
    1a2c:	00017c04 	.inst	0x00017c04 ; undefined
    1a30:	cb042600 	sub	x0, x16, x4, lsl #9
    1a34:	27000001 	.inst	0x27000001 ; undefined
    1a38:	0001f004 	.inst	0x0001f004 ; undefined
    1a3c:	fb042800 	.inst	0xfb042800 ; undefined
    1a40:	29000001 	stp	w1, w0, [x0]
    1a44:	00020604 	.inst	0x00020604 ; undefined
    1a48:	11042a00 	add	w0, w16, #0x10a
    1a4c:	2b000002 	adds	w2, w0, w0
    1a50:	00021c04 	.inst	0x00021c04 ; undefined
    1a54:	27042c00 	.inst	0x27042c00 ; undefined
    1a58:	2d000002 	stp	s2, s0, [x0]
    1a5c:	00023204 	.inst	0x00023204 ; undefined
    1a60:	3d042e00 	str	b0, [x16, #267]
    1a64:	2f000002 	.inst	0x2f000002 ; undefined
    1a68:	00024804 	.inst	0x00024804 ; undefined
    1a6c:	53043000 	ubfx	w0, w0, #4, #9
    1a70:	31000002 	adds	w2, w0, #0x0
    1a74:	0003f204 	.inst	0x0003f204 ; undefined
    1a78:	fd043200 	str	d0, [x16, #2144]
    1a7c:	33000003 	bfxil	w3, w0, #0, #1
    1a80:	00040804 	.inst	0x00040804 ; undefined
    1a84:	13043400 	sbfx	w0, w0, #4, #10
    1a88:	35000004 	cbnz	w4, 1a88 <_start-0x7e578>
    1a8c:	0001bd04 	.inst	0x0001bd04 ; undefined
    1a90:	05003500 	orr	z0.h, z0.h, #0xfc07
    1a94:	06830704 	.inst	0x06830704 ; undefined
    1a98:	01050000 	.inst	0x01050000 ; undefined
    1a9c:	00084906 	.inst	0x00084906 ; undefined
    1aa0:	05020500 	orr	z0.d, z0.d, #0x1ffffffffff
    1aa4:	000008a1 	.inst	0x000008a1 ; undefined
    1aa8:	b9050805 	str	w5, [x0, #1288]
    1aac:	05000006 	orr	z6.s, z6.s, #0x1
    1ab0:	08470801 	ldxrb	w1, [x0]
    1ab4:	02050000 	.inst	0x02050000 ; undefined
    1ab8:	00085507 	.inst	0x00085507 ; undefined
    1abc:	07080500 	.inst	0x07080500 ; undefined
    1ac0:	0000067e 	.inst	0x0000067e ; undefined
    1ac4:	50080105 	adr	x5, 11ae6 <_start-0x6e51a>
    1ac8:	06000008 	.inst	0x06000008 ; undefined
    1acc:	00000978 	.inst	0x00000978 ; undefined
    1ad0:	002d2c01 	.inst	0x002d2c01 ; NYI
    1ad4:	0eb40000 	saddl	v0.2d, v0.2s, v20.2s
    1ad8:	00000008 	.inst	0x00000008 ; undefined
    1adc:	00380000 	.inst	0x00380000 ; NYI
    1ae0:	00000000 	.inst	0x00000000 ; undefined
    1ae4:	9c010000 	ldr	q0, 3ae4 <_start-0x7c51c>
    1ae8:	00000269 	.inst	0x00000269 ; undefined
    1aec:	080ec007 	stlxrb	w14, w7, [x0]
    1af0:	00000000 	.inst	0x00000000 ; undefined
    1af4:	00045700 	.inst	0x00045700 ; undefined
    1af8:	0ec40700 	fminnm	v0.4h, v24.4h, v4.4h
    1afc:	00000008 	.inst	0x00000008 ; undefined
    1b00:	04620000 	add	z0.h, z0.h, z2.h
    1b04:	c8070000 	stxr	w7, x0, [x0]
    1b08:	0000080e 	.inst	0x0000080e ; undefined
    1b0c:	6d000000 	stp	d0, d0, [x0]
    1b10:	08000004 	stxrb	w0, w4, [x0]
    1b14:	00080ed0 	.inst	0x00080ed0 ; undefined
    1b18:	00000000 	.inst	0x00000000 ; undefined
    1b1c:	00000478 	.inst	0x00000478 ; undefined
    1b20:	00000229 	.inst	0x00000229 ; undefined
    1b24:	01500109 	.inst	0x01500109 ; undefined
    1b28:	dc080044 	.inst	0xdc080044 ; undefined
    1b2c:	0000080e 	.inst	0x0000080e ; undefined
    1b30:	83000000 	.inst	0x83000000 ; undefined
    1b34:	48000004 	stxrh	w0, w4, [x0]
    1b38:	09000002 	.inst	0x09000002 ; undefined
    1b3c:	03095001 	.inst	0x03095001 ; undefined
    1b40:	00080f18 	.inst	0x00080f18 ; undefined
    1b44:	00000000 	.inst	0x00000000 ; undefined
    1b48:	0ee00700 	.inst	0x0ee00700 ; undefined
    1b4c:	00000008 	.inst	0x00000008 ; undefined
    1b50:	048e0000 	.inst	0x048e0000 ; undefined
    1b54:	e80a0000 	.inst	0xe80a0000 ; undefined
    1b58:	0000080e 	.inst	0x0000080e ; undefined
    1b5c:	99000000 	.inst	0x99000000 ; undefined
    1b60:	09000004 	.inst	0x09000004 ; undefined
    1b64:	35015001 	cbnz	w1, 4564 <_start-0x7ba9c>
    1b68:	75060000 	.inst	0x75060000 ; undefined
    1b6c:	01000009 	.inst	0x01000009 ; undefined
    1b70:	00002d24 	.inst	0x00002d24 ; undefined
    1b74:	080e7400 	stxrb	w14, w0, [x0]
    1b78:	00000000 	.inst	0x00000000 ; undefined
    1b7c:	00004000 	.inst	0x00004000 ; undefined
    1b80:	00000000 	.inst	0x00000000 ; undefined
    1b84:	089c0100 	stllrb	w0, [x8]
    1b88:	0b000003 	add	w3, w0, w0
    1b8c:	25010078 	cmpgt	p8.b, p0/z, z3.b, #1
    1b90:	0000002d 	.inst	0x0000002d ; undefined
    1b94:	00790b21 	.inst	0x00790b21 ; undefined
    1b98:	002d2501 	.inst	0x002d2501 ; NYI
    1b9c:	0c6b0000 	.inst	0x0c6b0000 ; undefined
    1ba0:	26010064 	.inst	0x26010064 ; undefined
    1ba4:	0000002d 	.inst	0x0000002d ; undefined
    1ba8:	00001ba0 	.inst	0x00001ba0 ; undefined
    1bac:	0100660c 	.inst	0x0100660c ; undefined
    1bb0:	00002d27 	.inst	0x00002d27 ; undefined
    1bb4:	001bd600 	.inst	0x001bd600 ; undefined
    1bb8:	006e0c00 	.inst	0x006e0c00 ; undefined
    1bbc:	002d2801 	.inst	0x002d2801 ; NYI
    1bc0:	1c0c0000 	ldr	s0, 19bc0 <_start-0x66440>
    1bc4:	8c080000 	.inst	0x8c080000 ; undefined
    1bc8:	0000080e 	.inst	0x0000080e ; undefined
    1bcc:	08000000 	stxrb	w0, w0, [x0]
    1bd0:	e3000003 	.inst	0xe3000003 ; undefined
    1bd4:	09000002 	.inst	0x09000002 ; undefined
    1bd8:	08025001 	stxrb	w2, w1, [x0]
    1bdc:	51010921 	sub	w1, w9, #0x42
    1be0:	006b0802 	.inst	0x006b0802 ; undefined
    1be4:	080e9808 	stlxrb	w14, w8, [x0]
    1be8:	00000000 	.inst	0x00000000 ; undefined
    1bec:	0003d600 	.inst	0x0003d600 ; undefined
    1bf0:	0002fa00 	.inst	0x0002fa00 ; undefined
    1bf4:	50010900 	adr	x0, 3d16 <_start-0x7c2ea>
    1bf8:	07003701 	.inst	0x07003701 ; undefined
    1bfc:	00080ea0 	.inst	0x00080ea0 ; undefined
    1c00:	00000000 	.inst	0x00000000 ; undefined
    1c04:	0000035d 	.inst	0x0000035d ; undefined
    1c08:	09550600 	.inst	0x09550600 ; undefined
    1c0c:	1f010000 	fmadd	s0, s0, s1, s0
    1c10:	0000002d 	.inst	0x0000002d ; undefined
    1c14:	00080e5c 	.inst	0x00080e5c ; undefined
    1c18:	00000000 	.inst	0x00000000 ; undefined
    1c1c:	00000018 	.inst	0x00000018 ; undefined
    1c20:	00000000 	.inst	0x00000000 ; undefined
    1c24:	035d9c01 	.inst	0x035d9c01 ; undefined
    1c28:	610d0000 	.inst	0x610d0000 ; undefined
    1c2c:	2d1f0100 	stp	s0, s0, [x8, #248]
    1c30:	2f000000 	.inst	0x2f000000 ; undefined
    1c34:	0d00001c 	st1	{v28.b}[0], [x0]
    1c38:	1f010062 	fmadd	s2, s3, s1, s0
    1c3c:	0000002d 	.inst	0x0000002d ; undefined
    1c40:	00001c68 	.inst	0x00001c68 ; undefined
    1c44:	080e6c0a 	stxrb	w14, w10, [x0]
    1c48:	00000000 	.inst	0x00000000 ; undefined
    1c4c:	00041900 	.inst	0x00041900 ; undefined
    1c50:	50010900 	adr	x0, 3d72 <_start-0x7c28e>
    1c54:	5001f307 	adr	x7, 5ab6 <_start-0x7a54a>
    1c58:	1c5101f3 	ldr	s19, a3c94 <__bss_end__+0x22d54>
    1c5c:	5a060000 	sbc	w0, w0, w6
    1c60:	01000009 	.inst	0x01000009 ; undefined
    1c64:	00002d15 	.inst	0x00002d15 ; undefined
    1c68:	080e1800 	stxrb	w14, w0, [x0]
    1c6c:	00000000 	.inst	0x00000000 ; undefined
    1c70:	00004400 	.inst	0x00004400 ; undefined
    1c74:	00000000 	.inst	0x00000000 ; undefined
    1c78:	c69c0100 	.inst	0xc69c0100 ; undefined
    1c7c:	0e000003 	tbl	v3.8b, {v0.16b}, v0.8b
    1c80:	0000095f 	.inst	0x0000095f ; undefined
    1c84:	03c61701 	.inst	0x03c61701 ; undefined
    1c88:	91020000 	add	x0, x0, #0x80
    1c8c:	0e280f68 	sqadd	v8.8b, v27.8b, v8.8b
    1c90:	00000008 	.inst	0x00000008 ; undefined
    1c94:	00240000 	.inst	0x00240000 ; NYI
    1c98:	00000000 	.inst	0x00000000 ; undefined
    1c9c:	03af0000 	.inst	0x03af0000 ; undefined
    1ca0:	690c0000 	.inst	0x690c0000 ; undefined
    1ca4:	2d1a0100 	stp	s0, s0, [x8, #208]
    1ca8:	a1000000 	.inst	0xa1000000 ; undefined
    1cac:	0000001c 	.inst	0x0000001c ; undefined
    1cb0:	080e540a 	stxrb	w14, w10, [x0]
    1cb4:	00000000 	.inst	0x00000000 ; undefined
    1cb8:	00041900 	.inst	0x00041900 ; undefined
    1cbc:	50010900 	adr	x0, 3dde <_start-0x7c222>
    1cc0:	94248f04 	bl	9258d0 <__bss_end__+0x8a4990>
    1cc4:	10000004 	adr	x4, 1cc4 <_start-0x7e33c>
    1cc8:	0000002d 	.inst	0x0000002d ; undefined
    1ccc:	000003d6 	.inst	0x000003d6 ; undefined
    1cd0:	0001bc11 	.inst	0x0001bc11 ; undefined
    1cd4:	06000500 	.inst	0x06000500 ; undefined
    1cd8:	00000965 	.inst	0x00000965 ; undefined
    1cdc:	002d0d01 	.inst	0x002d0d01 ; NYI
    1ce0:	0de00000 	ld2	{v0.b, v1.b}[0], [x0], x0
    1ce4:	00000008 	.inst	0x00000008 ; undefined
    1ce8:	00380000 	.inst	0x00380000 ; NYI
    1cec:	00000000 	.inst	0x00000000 ; undefined
    1cf0:	9c010000 	ldr	q0, 3cf0 <_start-0x7c310>
    1cf4:	00000419 	.inst	0x00000419 ; undefined
    1cf8:	01006e0d 	.inst	0x01006e0d ; undefined
    1cfc:	00002d0d 	.inst	0x00002d0d ; undefined
    1d00:	001d0000 	.inst	0x001d0000 ; undefined
    1d04:	0e080a00 	.inst	0x0e080a00 ; undefined
    1d08:	00000008 	.inst	0x00000008 ; undefined
    1d0c:	03d60000 	.inst	0x03d60000 ; undefined
    1d10:	01090000 	.inst	0x01090000 ; undefined
    1d14:	7f830250 	.inst	0x7f830250 ; undefined
    1d18:	61120000 	.inst	0x61120000 ; undefined
    1d1c:	01007362 	.inst	0x01007362 ; undefined
    1d20:	00002d07 	.inst	0x00002d07 ; undefined
    1d24:	080dd400 	stlxrb	w13, w0, [x0]
    1d28:	00000000 	.inst	0x00000000 ; undefined
    1d2c:	00000c00 	.inst	0x00000c00 ; undefined
    1d30:	00000000 	.inst	0x00000000 ; undefined
    1d34:	579c0100 	.inst	0x579c0100 ; undefined
    1d38:	0d000004 	st1	{v4.b}[0], [x0]
    1d3c:	07010076 	.inst	0x07010076 ; undefined
    1d40:	0000002d 	.inst	0x0000002d ; undefined
    1d44:	00001d75 	.inst	0x00001d75 ; undefined
    1d48:	00094e13 	.inst	0x00094e13 ; undefined
    1d4c:	2d090100 	stp	s0, s0, [x8, #72]
    1d50:	ae000000 	.inst	0xae000000 ; undefined
    1d54:	0000001d 	.inst	0x0000001d ; undefined
    1d58:	0004f914 	.inst	0x0004f914 ; undefined
    1d5c:	0004f900 	.inst	0x0004f900 ; undefined
    1d60:	14700200 	b	1c02560 <__bss_end__+0x1b81620>
    1d64:	000005d1 	.inst	0x000005d1 ; undefined
    1d68:	000005d1 	.inst	0x000005d1 ; undefined
    1d6c:	25141203 	cmpge	p3.b, p4/z, z16.b, #-12
    1d70:	25000009 	cmpge	p9.b, p0/z, z0.b, #0
    1d74:	04000009 	add	z9.b, p0/m, z9.b, z0.b
    1d78:	04861413 	.inst	0x04861413 ; undefined
    1d7c:	04860000 	.inst	0x04860000 ; undefined
    1d80:	8d020000 	.inst	0x8d020000 ; undefined
    1d84:	00073614 	.inst	0x00073614 ; undefined
    1d88:	00073600 	.inst	0x00073600 ; undefined
    1d8c:	143e0500 	b	f8318c <__bss_end__+0xf0224c>
    1d90:	00000885 	.inst	0x00000885 ; undefined
    1d94:	00000885 	.inst	0x00000885 ; undefined
    1d98:	f4144906 	.inst	0xf4144906 ; undefined
    1d9c:	f4000005 	.inst	0xf4000005 ; undefined
    1da0:	03000005 	.inst	0x03000005 ; undefined
    1da4:	Address 0x0000000000001da4 is out of bounds.


Disassembly of section .debug_abbrev:

0000000000000000 <.debug_abbrev>:
   0:	25011101 	cmpge	p1.b, p4/z, z8.b, #1
   4:	030b130e 	.inst	0x030b130e ; undefined
   8:	110e1b0e 	add	w14, w24, #0x386
   c:	10071201 	adr	x1, e24c <_start-0x71db4>
  10:	02000017 	.inst	0x02000017 ; undefined
  14:	0e030034 	tbl	v20.8b, {v1.16b}, v3.8b
  18:	0b3b0b3a 	add	w26, w25, w27, uxtb #2
  1c:	193f1349 	.inst	0x193f1349 ; undefined
  20:	0000193c 	.inst	0x0000193c ; undefined
  24:	0b002403 	add	w3, w0, w0, lsl #9
  28:	030b3e0b 	.inst	0x030b3e0b ; undefined
  2c:	04000008 	add	z8.b, p0/m, z8.b, z0.b
  30:	193f012e 	.inst	0x193f012e ; undefined
  34:	0b3a0e03 	add	w3, w16, w26, uxtb #3
  38:	19270b3b 	.inst	0x19270b3b ; undefined
  3c:	07120111 	.inst	0x07120111 ; undefined
  40:	42971840 	.inst	0x42971840 ; undefined
  44:	00130119 	.inst	0x00130119 ; undefined
  48:	00340500 	.inst	0x00340500 ; NYI
  4c:	0b3a0803 	add	w3, w0, w26, uxtb #2
  50:	13490b3b 	.inst	0x13490b3b ; undefined
  54:	00001702 	.inst	0x00001702 ; undefined
  58:	03003406 	.inst	0x03003406 ; undefined
  5c:	3b0b3a0e 	.inst	0x3b0b3a0e ; undefined
  60:	0013490b 	.inst	0x0013490b ; undefined
  64:	82890700 	.inst	0x82890700 ; undefined
  68:	01110001 	.inst	0x01110001 ; undefined
  6c:	00001331 	.inst	0x00001331 ; undefined
  70:	0b000f08 	add	w8, w24, w0, lsl #3
  74:	0013490b 	.inst	0x0013490b ; undefined
  78:	002e0900 	.inst	0x002e0900 ; NYI
  7c:	193c193f 	.inst	0x193c193f ; undefined
  80:	0e030e6e 	dup	v14.8b, w19
  84:	0b3b0b3a 	add	w26, w25, w27, uxtb #2
  88:	01000000 	.inst	0x01000000 ; undefined
  8c:	0e250111 	saddl	v17.8h, v8.8b, v5.8b
  90:	0e030b13 	.inst	0x0e030b13 ; undefined
  94:	01110e1b 	.inst	0x01110e1b ; undefined
  98:	17100712 	b	fffffffffc401ce0 <__bss_end__+0xfffffffffc380da0>
  9c:	04020000 	.inst	0x04020000 ; undefined
  a0:	0b0b3e01 	add	w1, w16, w11, lsl #15
  a4:	3a13490b 	.inst	0x3a13490b ; undefined
  a8:	010b3b0b 	.inst	0x010b3b0b ; undefined
  ac:	03000013 	.inst	0x03000013 ; undefined
  b0:	0e030028 	tbl	v8.8b, {v1.16b}, v3.8b
  b4:	00000b1c 	.inst	0x00000b1c ; undefined
  b8:	0b002404 	add	w4, w0, w0, lsl #9
  bc:	030b3e0b 	.inst	0x030b3e0b ; undefined
  c0:	0500000e 	orr	z14.s, z14.s, #0x1
  c4:	13490035 	.inst	0x13490035 ; undefined
  c8:	13060000 	sbfiz	w0, w0, #26, #1
  cc:	0b0e0301 	add	w1, w24, w14
  d0:	3b0b3a0b 	.inst	0x3b0b3a0b ; undefined
  d4:	0013010b 	.inst	0x0013010b ; undefined
  d8:	000d0700 	.inst	0x000d0700 ; undefined
  dc:	0b3a0e03 	add	w3, w16, w26, uxtb #3
  e0:	13490b3b 	.inst	0x13490b3b ; undefined
  e4:	00000b38 	.inst	0x00000b38 ; undefined
  e8:	03003408 	.inst	0x03003408 ; undefined
  ec:	3b0b3a0e 	.inst	0x3b0b3a0e ; undefined
  f0:	0213490b 	.inst	0x0213490b ; undefined
  f4:	09000018 	.inst	0x09000018 ; undefined
  f8:	0b0b000f 	add	w15, w0, w11
  fc:	00001349 	.inst	0x00001349 ; undefined
 100:	3f012e0a 	.inst	0x3f012e0a ; undefined
 104:	3a0e0319 	adcs	w25, w24, w14
 108:	270b3b0b 	.inst	0x270b3b0b ; undefined
 10c:	11134919 	add	w25, w8, #0x4d2
 110:	40071201 	.inst	0x40071201 ; undefined
 114:	19429718 	.inst	0x19429718 ; undefined
 118:	00001301 	.inst	0x00001301 ; undefined
 11c:	0300050b 	.inst	0x0300050b ; undefined
 120:	3b0b3a08 	.inst	0x3b0b3a08 ; undefined
 124:	0213490b 	.inst	0x0213490b ; undefined
 128:	0c000017 	st4	{v23.8b-v26.8b}, [x0]
 12c:	08030034 	stxrb	w3, w20, [x1]
 130:	0b3b0b3a 	add	w26, w25, w27, uxtb #2
 134:	17021349 	b	fffffffffc084e58 <__bss_end__+0xfffffffffc003f18>
 138:	340d0000 	cbz	w0, 1a138 <_start-0x65ec8>
 13c:	3a0e0300 	adcs	w0, w24, w14
 140:	490b3b0b 	.inst	0x490b3b0b ; undefined
 144:	00170213 	.inst	0x00170213 ; undefined
 148:	82890e00 	.inst	0x82890e00 ; undefined
 14c:	01110101 	.inst	0x01110101 ; undefined
 150:	13011331 	sbfx	w17, w25, #1, #4
 154:	8a0f0000 	and	x0, x0, x15
 158:	02000182 	.inst	0x02000182 ; undefined
 15c:	18429118 	ldr	w24, 8537c <__bss_end__+0x443c>
 160:	89100000 	.inst	0x89100000 ; undefined
 164:	11010182 	add	w2, w12, #0x40
 168:	00133101 	.inst	0x00133101 ; undefined
 16c:	012e1100 	.inst	0x012e1100 ; undefined
 170:	0e03193f 	uzp1	v31.8b, v9.8b, v3.8b
 174:	0b3b0b3a 	add	w26, w25, w27, uxtb #2
 178:	01111927 	.inst	0x01111927 ; undefined
 17c:	18400712 	ldr	w18, 8025c <gpio_set_input+0xc>
 180:	01194297 	.inst	0x01194297 ; undefined
 184:	12000013 	and	w19, w0, #0x1
 188:	0e030005 	tbl	v5.8b, {v0.16b}, v3.8b
 18c:	0b3b0b3a 	add	w26, w25, w27, uxtb #2
 190:	17021349 	b	fffffffffc084eb4 <__bss_end__+0xfffffffffc003f74>
 194:	2e130000 	ext	v0.8b, v0.8b, v19.8b, #0
 198:	03193f00 	.inst	0x03193f00 ; undefined
 19c:	3b0b3a0e 	.inst	0x3b0b3a0e ; undefined
 1a0:	1119270b 	add	w11, w24, #0x649
 1a4:	40071201 	.inst	0x40071201 ; undefined
 1a8:	19429718 	.inst	0x19429718 ; undefined
 1ac:	2e140000 	ext	v0.8b, v0.8b, v20.8b, #0
 1b0:	3a0e0301 	adcs	w1, w24, w14
 1b4:	270b3b0b 	.inst	0x270b3b0b ; undefined
 1b8:	11134919 	add	w25, w8, #0x4d2
 1bc:	40071201 	.inst	0x40071201 ; undefined
 1c0:	19429718 	.inst	0x19429718 ; undefined
 1c4:	00001301 	.inst	0x00001301 ; undefined
 1c8:	03012e15 	.inst	0x03012e15 ; undefined
 1cc:	3b0b3a0e 	.inst	0x3b0b3a0e ; undefined
 1d0:	4919270b 	.inst	0x4919270b ; undefined
 1d4:	12011113 	and	w19, w8, #0x8000000f
 1d8:	97184007 	bl	fffffffffc6101f4 <__bss_end__+0xfffffffffc58f2b4>
 1dc:	00001942 	.inst	0x00001942 ; undefined
 1e0:	01110100 	.inst	0x01110100 ; undefined
 1e4:	0b130e25 	add	w5, w17, w19, lsl #3
 1e8:	0e1b0e03 	dup	v3.8b, w16
 1ec:	07120111 	.inst	0x07120111 ; undefined
 1f0:	00001710 	.inst	0x00001710 ; undefined
 1f4:	03011302 	.inst	0x03011302 ; undefined
 1f8:	3a0b0b0e 	.inst	0x3a0b0b0e ; undefined
 1fc:	010b3b0b 	.inst	0x010b3b0b ; undefined
 200:	03000013 	.inst	0x03000013 ; undefined
 204:	0e03000d 	tbl	v13.8b, {v0.16b}, v3.8b
 208:	0b3b0b3a 	add	w26, w25, w27, uxtb #2
 20c:	0b381349 	add	w9, w26, w24, uxtb #4
 210:	35040000 	cbnz	w0, 8210 <_start-0x77df0>
 214:	00134900 	.inst	0x00134900 ; undefined
 218:	00240500 	.inst	0x00240500 ; NYI
 21c:	0b3e0b0b 	add	w11, w24, w30, uxtb #2
 220:	00000e03 	.inst	0x00000e03 ; undefined
 224:	03003406 	.inst	0x03003406 ; undefined
 228:	3b0b3a0e 	.inst	0x3b0b3a0e ; undefined
 22c:	0213490b 	.inst	0x0213490b ; undefined
 230:	07000018 	.inst	0x07000018 ; undefined
 234:	0b0b000f 	add	w15, w0, w11
 238:	00001349 	.inst	0x00001349 ; undefined
 23c:	3f012e08 	.inst	0x3f012e08 ; undefined
 240:	3a0e0319 	adcs	w25, w24, w14
 244:	270b3b0b 	.inst	0x270b3b0b ; undefined
 248:	12011119 	and	w25, w8, #0x8000000f
 24c:	97184007 	bl	fffffffffc610268 <__bss_end__+0xfffffffffc58f328>
 250:	13011942 	sbfx	w2, w10, #1, #6
 254:	05090000 	.inst	0x05090000 ; undefined
 258:	3a080300 	adcs	w0, w24, w8
 25c:	490b3b0b 	.inst	0x490b3b0b ; undefined
 260:	00170213 	.inst	0x00170213 ; undefined
 264:	82890a00 	.inst	0x82890a00 ; undefined
 268:	01110001 	.inst	0x01110001 ; undefined
 26c:	00001331 	.inst	0x00001331 ; undefined
 270:	0300050b 	.inst	0x0300050b ; undefined
 274:	3b0b3a0e 	.inst	0x3b0b3a0e ; undefined
 278:	0213490b 	.inst	0x0213490b ; undefined
 27c:	0c000017 	st4	{v23.8b-v26.8b}, [x0]
 280:	01018289 	.inst	0x01018289 ; undefined
 284:	13310111 	.inst	0x13310111 ; undefined
 288:	8a0d0000 	and	x0, x0, x13
 28c:	02000182 	.inst	0x02000182 ; undefined
 290:	18429118 	ldr	w24, 854b0 <__bss_end__+0x4570>
 294:	340e0000 	cbz	w0, 1c294 <_start-0x63d6c>
 298:	3a0e0300 	adcs	w0, w24, w14
 29c:	490b3b0b 	.inst	0x490b3b0b ; undefined
 2a0:	00170213 	.inst	0x00170213 ; undefined
 2a4:	002e0f00 	.inst	0x002e0f00 ; NYI
 2a8:	0e03193f 	uzp1	v31.8b, v9.8b, v3.8b
 2ac:	0b3b0b3a 	add	w26, w25, w27, uxtb #2
 2b0:	13491927 	.inst	0x13491927 ; undefined
 2b4:	07120111 	.inst	0x07120111 ; undefined
 2b8:	42971840 	.inst	0x42971840 ; undefined
 2bc:	10000019 	adr	x25, 2bc <_start-0x7fd44>
 2c0:	193f002e 	.inst	0x193f002e ; undefined
 2c4:	0b3a0e03 	add	w3, w16, w26, uxtb #3
 2c8:	19270b3b 	.inst	0x19270b3b ; undefined
 2cc:	07120111 	.inst	0x07120111 ; undefined
 2d0:	42971840 	.inst	0x42971840 ; undefined
 2d4:	00000019 	.inst	0x00000019 ; undefined
 2d8:	25011101 	cmpge	p1.b, p4/z, z8.b, #1
 2dc:	030b130e 	.inst	0x030b130e ; undefined
 2e0:	110e1b0e 	add	w14, w24, #0x386
 2e4:	10071201 	adr	x1, e524 <_start-0x71adc>
 2e8:	02000017 	.inst	0x02000017 ; undefined
 2ec:	0b0b0024 	add	w4, w1, w11
 2f0:	0e030b3e 	.inst	0x0e030b3e ; undefined
 2f4:	16030000 	b	fffffffff80c02f4 <__bss_end__+0xfffffffff803f3b4>
 2f8:	3a0e0300 	adcs	w0, w24, w14
 2fc:	490b3b0b 	.inst	0x490b3b0b ; undefined
 300:	04000013 	add	z19.b, p0/m, z19.b, z0.b
 304:	193f012e 	.inst	0x193f012e ; undefined
 308:	0b3a0e03 	add	w3, w16, w26, uxtb #3
 30c:	19270b3b 	.inst	0x19270b3b ; undefined
 310:	01111349 	.inst	0x01111349 ; undefined
 314:	18400712 	ldr	w18, 803f4 <strtonum_hex+0x48>
 318:	01194297 	.inst	0x01194297 ; undefined
 31c:	05000013 	orr	z19.s, z19.s, #0x1
 320:	08030005 	stxrb	w3, w5, [x0]
 324:	0b3b0b3a 	add	w26, w25, w27, uxtb #2
 328:	17021349 	b	fffffffffc08504c <__bss_end__+0xfffffffffc00410c>
 32c:	05060000 	.inst	0x05060000 ; undefined
 330:	3a0e0300 	adcs	w0, w24, w14
 334:	490b3b0b 	.inst	0x490b3b0b ; undefined
 338:	00170213 	.inst	0x00170213 ; undefined
 33c:	00340700 	.inst	0x00340700 ; NYI
 340:	0b3a0e03 	add	w3, w16, w26, uxtb #3
 344:	13490b3b 	.inst	0x13490b3b ; undefined
 348:	00001702 	.inst	0x00001702 ; undefined
 34c:	01828908 	.inst	0x01828908 ; undefined
 350:	31011101 	adds	w1, w8, #0x44
 354:	09000013 	.inst	0x09000013 ; undefined
 358:	0001828a 	.inst	0x0001828a ; undefined
 35c:	42911802 	.inst	0x42911802 ; undefined
 360:	0a000018 	and	w24, w0, w0
 364:	0b0b0024 	add	w4, w1, w11
 368:	08030b3e 	stxrb	w3, w30, [x25]
 36c:	0f0b0000 	.inst	0x0f0b0000 ; undefined
 370:	490b0b00 	.inst	0x490b0b00 ; undefined
 374:	0c000013 	st4	{v19.8b-v22.8b}, [x0]
 378:	13490026 	.inst	0x13490026 ; undefined
 37c:	890d0000 	.inst	0x890d0000 ; undefined
 380:	11000182 	add	w2, w12, #0x0
 384:	00133101 	.inst	0x00133101 ; undefined
 388:	82890e00 	.inst	0x82890e00 ; undefined
 38c:	01110101 	.inst	0x01110101 ; undefined
 390:	13011331 	sbfx	w17, w25, #1, #4
 394:	340f0000 	cbz	w0, 1e394 <_start-0x61c6c>
 398:	3a080300 	adcs	w0, w24, w8
 39c:	490b3b0b 	.inst	0x490b3b0b ; undefined
 3a0:	00170213 	.inst	0x00170213 ; undefined
 3a4:	00051000 	.inst	0x00051000 ; undefined
 3a8:	0b3a0803 	add	w3, w0, w26, uxtb #2
 3ac:	13490b3b 	.inst	0x13490b3b ; undefined
 3b0:	00001802 	.inst	0x00001802 ; undefined
 3b4:	11010b11 	add	w17, w24, #0x42
 3b8:	00071201 	.inst	0x00071201 ; undefined
 3bc:	000f1200 	.inst	0x000f1200 ; undefined
 3c0:	00000b0b 	.inst	0x00000b0b ; undefined
 3c4:	00002613 	.inst	0x00002613 ; undefined
 3c8:	012e1400 	.inst	0x012e1400 ; undefined
 3cc:	0b3a0e03 	add	w3, w16, w26, uxtb #3
 3d0:	19270b3b 	.inst	0x19270b3b ; undefined
 3d4:	01111349 	.inst	0x01111349 ; undefined
 3d8:	18400712 	ldr	w18, 804b8 <strlen+0x20>
 3dc:	01194297 	.inst	0x01194297 ; undefined
 3e0:	15000013 	b	400042c <__bss_end__+0x3f7f4ec>
 3e4:	0e030005 	tbl	v5.8b, {v0.16b}, v3.8b
 3e8:	0b3b0b3a 	add	w26, w25, w27, uxtb #2
 3ec:	18021349 	ldr	w9, 4654 <_start-0x7b9ac>
 3f0:	2e160000 	ext	v0.8b, v0.8b, v22.8b, #0
 3f4:	3a0e0301 	adcs	w1, w24, w14
 3f8:	270b3b0b 	.inst	0x270b3b0b ; undefined
 3fc:	11134919 	add	w25, w8, #0x4d2
 400:	40071201 	.inst	0x40071201 ; undefined
 404:	19429718 	.inst	0x19429718 ; undefined
 408:	01000000 	.inst	0x01000000 ; undefined
 40c:	0e250111 	saddl	v17.8h, v8.8b, v5.8b
 410:	0e030b13 	.inst	0x0e030b13 ; undefined
 414:	01110e1b 	.inst	0x01110e1b ; undefined
 418:	17100712 	b	fffffffffc402060 <__bss_end__+0xfffffffffc381120>
 41c:	16020000 	b	fffffffff808041c <__bss_end__+0xfffffffff7fff4dc>
 420:	3a0e0300 	adcs	w0, w24, w14
 424:	490b3b0b 	.inst	0x490b3b0b ; undefined
 428:	03000013 	.inst	0x03000013 ; undefined
 42c:	0e030113 	tbl	v19.8b, {v8.16b}, v3.8b
 430:	0b3a0b0b 	add	w11, w24, w26, uxtb #2
 434:	13010b3b 	sbfx	w27, w25, #1, #2
 438:	0d040000 	.inst	0x0d040000 ; undefined
 43c:	490e0300 	.inst	0x490e0300 ; undefined
 440:	340b3813 	cbz	w19, 16b40 <_start-0x694c0>
 444:	05000019 	orr	z25.s, z25.s, #0x1
 448:	0b0b000f 	add	w15, w0, w11
 44c:	24060000 	cmphs	p0.b, p0/z, z0.b, z6.b
 450:	3e0b0b00 	.inst	0x3e0b0b00 ; undefined
 454:	0008030b 	.inst	0x0008030b ; undefined
 458:	00240700 	.inst	0x00240700 ; NYI
 45c:	0b3e0b0b 	add	w11, w24, w30, uxtb #2
 460:	00000e03 	.inst	0x00000e03 ; undefined
 464:	3f012e08 	.inst	0x3f012e08 ; undefined
 468:	3a0e0319 	adcs	w25, w24, w14
 46c:	270b3b0b 	.inst	0x270b3b0b ; undefined
 470:	11134919 	add	w25, w8, #0x4d2
 474:	40071201 	.inst	0x40071201 ; undefined
 478:	19429718 	.inst	0x19429718 ; undefined
 47c:	00001301 	.inst	0x00001301 ; undefined
 480:	03000509 	.inst	0x03000509 ; undefined
 484:	3b0b3a0e 	.inst	0x3b0b3a0e ; undefined
 488:	0213490b 	.inst	0x0213490b ; undefined
 48c:	0a000017 	and	w23, w0, w0
 490:	00000018 	.inst	0x00000018 ; undefined
 494:	0300340b 	.inst	0x0300340b ; undefined
 498:	3b0b3a08 	.inst	0x3b0b3a08 ; undefined
 49c:	0213490b 	.inst	0x0213490b ; undefined
 4a0:	0c000018 	st4	{v24.8b-v27.8b}, [x0]
 4a4:	0e030034 	tbl	v20.8b, {v1.16b}, v3.8b
 4a8:	0b3b0b3a 	add	w26, w25, w27, uxtb #2
 4ac:	17021349 	b	fffffffffc0851d0 <__bss_end__+0xfffffffffc004290>
 4b0:	890d0000 	.inst	0x890d0000 ; undefined
 4b4:	11010182 	add	w2, w12, #0x40
 4b8:	01133101 	.inst	0x01133101 ; undefined
 4bc:	0e000013 	tbl	v19.8b, {v0.16b}, v0.8b
 4c0:	0001828a 	.inst	0x0001828a ; undefined
 4c4:	42911802 	.inst	0x42911802 ; undefined
 4c8:	0f000018 	.inst	0x0f000018 ; undefined
 4cc:	00018289 	.inst	0x00018289 ; undefined
 4d0:	13310111 	.inst	0x13310111 ; undefined
 4d4:	0f100000 	.inst	0x0f100000 ; undefined
 4d8:	490b0b00 	.inst	0x490b0b00 ; undefined
 4dc:	11000013 	add	w19, w0, #0x0
 4e0:	13490026 	.inst	0x13490026 ; undefined
 4e4:	01120000 	.inst	0x01120000 ; undefined
 4e8:	01134901 	.inst	0x01134901 ; undefined
 4ec:	13000013 	sbfx	w19, w0, #0, #1
 4f0:	13490021 	.inst	0x13490021 ; undefined
 4f4:	0000052f 	.inst	0x0000052f ; undefined
 4f8:	03000514 	.inst	0x03000514 ; undefined
 4fc:	3b0b3a08 	.inst	0x3b0b3a08 ; undefined
 500:	0213490b 	.inst	0x0213490b ; undefined
 504:	15000017 	b	4000560 <__bss_end__+0x3f7f620>
 508:	01018289 	.inst	0x01018289 ; undefined
 50c:	13310111 	.inst	0x13310111 ; undefined
 510:	05160000 	mov	z0.b, p6/z, #0
 514:	3a0e0300 	adcs	w0, w24, w14
 518:	490b3b0b 	.inst	0x490b3b0b ; undefined
 51c:	00180213 	.inst	0x00180213 ; undefined
 520:	010b1700 	.inst	0x010b1700 ; undefined
 524:	07120111 	.inst	0x07120111 ; undefined
 528:	0b180000 	add	w0, w0, w24
 52c:	01175501 	.inst	0x01175501 ; undefined
 530:	19000013 	.inst	0x19000013 ; undefined
 534:	08030034 	stxrb	w3, w20, [x1]
 538:	0b3b0b3a 	add	w26, w25, w27, uxtb #2
 53c:	17021349 	b	fffffffffc085260 <__bss_end__+0xfffffffffc004320>
 540:	2e1a0000 	ext	v0.8b, v0.8b, v26.8b, #0
 544:	3a0e0301 	adcs	w1, w24, w14
 548:	270b3b0b 	.inst	0x270b3b0b ; undefined
 54c:	11134919 	add	w25, w8, #0x4d2
 550:	40071201 	.inst	0x40071201 ; undefined
 554:	19429718 	.inst	0x19429718 ; undefined
 558:	00001301 	.inst	0x00001301 ; undefined
 55c:	3f002e1b 	.inst	0x3f002e1b ; undefined
 560:	6e193c19 	mov	v25.b[12], v0.b[7]
 564:	3a0e030e 	adcs	w14, w24, w14
 568:	000b3b0b 	.inst	0x000b3b0b ; undefined
 56c:	11010000 	add	w0, w0, #0x40
 570:	130e2501 	sbfiz	w1, w8, #18, #10
 574:	1b0e030b 	madd	w11, w24, w14, w0
 578:	1201110e 	and	w14, w8, #0x8000000f
 57c:	00171007 	.inst	0x00171007 ; undefined
 580:	00240200 	.inst	0x00240200 ; NYI
 584:	0b3e0b0b 	add	w11, w24, w30, uxtb #2
 588:	00000e03 	.inst	0x00000e03 ; undefined
 58c:	0b002403 	add	w3, w0, w0, lsl #9
 590:	030b3e0b 	.inst	0x030b3e0b ; undefined
 594:	04000008 	add	z8.b, p0/m, z8.b, z0.b
 598:	0e030016 	tbl	v22.8b, {v0.16b}, v3.8b
 59c:	0b3b0b3a 	add	w26, w25, w27, uxtb #2
 5a0:	00001349 	.inst	0x00001349 ; undefined
 5a4:	0b011305 	add	w5, w24, w1, lsl #4
 5a8:	3b0b3a0b 	.inst	0x3b0b3a0b ; undefined
 5ac:	0013010b 	.inst	0x0013010b ; undefined
 5b0:	000d0600 	.inst	0x000d0600 ; undefined
 5b4:	0b3a0e03 	add	w3, w16, w26, uxtb #3
 5b8:	13490b3b 	.inst	0x13490b3b ; undefined
 5bc:	00000b38 	.inst	0x00000b38 ; undefined
 5c0:	0b000f07 	add	w7, w24, w0, lsl #3
 5c4:	0013490b 	.inst	0x0013490b ; undefined
 5c8:	00260800 	.inst	0x00260800 ; NYI
 5cc:	00001349 	.inst	0x00001349 ; undefined
 5d0:	0b000f09 	add	w9, w24, w0, lsl #3
 5d4:	0a00000b 	and	w11, w0, w0
 5d8:	0e030034 	tbl	v20.8b, {v1.16b}, v3.8b
 5dc:	0b3b0b3a 	add	w26, w25, w27, uxtb #2
 5e0:	00001349 	.inst	0x00001349 ; undefined
 5e4:	3f012e0b 	.inst	0x3f012e0b ; undefined
 5e8:	3a0e0319 	adcs	w25, w24, w14
 5ec:	270b3b0b 	.inst	0x270b3b0b ; undefined
 5f0:	12011119 	and	w25, w8, #0x8000000f
 5f4:	97184007 	bl	fffffffffc610610 <__bss_end__+0xfffffffffc58f6d0>
 5f8:	13011942 	sbfx	w2, w10, #1, #6
 5fc:	340c0000 	cbz	w0, 185fc <_start-0x67a04>
 600:	3a080300 	adcs	w0, w24, w8
 604:	490b3b0b 	.inst	0x490b3b0b ; undefined
 608:	00180213 	.inst	0x00180213 ; undefined
 60c:	82890d00 	.inst	0x82890d00 ; undefined
 610:	01110101 	.inst	0x01110101 ; undefined
 614:	13011331 	sbfx	w17, w25, #1, #4
 618:	8a0e0000 	and	x0, x0, x14
 61c:	02000182 	.inst	0x02000182 ; undefined
 620:	18429118 	ldr	w24, 85840 <__bss_end__+0x4900>
 624:	890f0000 	.inst	0x890f0000 ; undefined
 628:	11010182 	add	w2, w12, #0x40
 62c:	00133101 	.inst	0x00133101 ; undefined
 630:	01011000 	.inst	0x01011000 ; undefined
 634:	13011349 	sbfx	w9, w26, #1, #4
 638:	21110000 	.inst	0x21110000 ; undefined
 63c:	2f134900 	.inst	0x2f134900 ; undefined
 640:	1200000b 	and	w11, w0, #0x1
 644:	08030005 	stxrb	w3, w5, [x0]
 648:	0b3b0b3a 	add	w26, w25, w27, uxtb #2
 64c:	17021349 	b	fffffffffc085370 <__bss_end__+0xfffffffffc004430>
 650:	34130000 	cbz	w0, 26650 <_start-0x599b0>
 654:	3a080300 	adcs	w0, w24, w8
 658:	490b3b0b 	.inst	0x490b3b0b ; undefined
 65c:	00170213 	.inst	0x00170213 ; undefined
 660:	012e1400 	.inst	0x012e1400 ; undefined
 664:	0e03193f 	uzp1	v31.8b, v9.8b, v3.8b
 668:	0b3b0b3a 	add	w26, w25, w27, uxtb #2
 66c:	13491927 	.inst	0x13491927 ; undefined
 670:	07120111 	.inst	0x07120111 ; undefined
 674:	42971840 	.inst	0x42971840 ; undefined
 678:	00130119 	.inst	0x00130119 ; undefined
 67c:	00051500 	.inst	0x00051500 ; undefined
 680:	0b3a0e03 	add	w3, w16, w26, uxtb #3
 684:	13490b3b 	.inst	0x13490b3b ; undefined
 688:	00001802 	.inst	0x00001802 ; undefined
 68c:	03003416 	.inst	0x03003416 ; undefined
 690:	3b0b3a0e 	.inst	0x3b0b3a0e ; undefined
 694:	0213490b 	.inst	0x0213490b ; undefined
 698:	17000017 	b	fffffffffc0006f4 <__bss_end__+0xfffffffffbf7f7b4>
 69c:	193f002e 	.inst	0x193f002e ; undefined
 6a0:	0e6e193c 	.inst	0x0e6e193c ; undefined
 6a4:	0b3a0e03 	add	w3, w16, w26, uxtb #3
 6a8:	00000b3b 	.inst	0x00000b3b ; undefined
 6ac:	01110100 	.inst	0x01110100 ; undefined
 6b0:	0b130e25 	add	w5, w17, w19, lsl #3
 6b4:	0e1b0e03 	dup	v3.8b, w16
 6b8:	07120111 	.inst	0x07120111 ; undefined
 6bc:	00001710 	.inst	0x00001710 ; undefined
 6c0:	3e010402 	.inst	0x3e010402 ; undefined
 6c4:	490b0b0b 	.inst	0x490b0b0b ; undefined
 6c8:	3b0b3a13 	.inst	0x3b0b3a13 ; undefined
 6cc:	0013010b 	.inst	0x0013010b ; undefined
 6d0:	00280300 	.inst	0x00280300 ; NYI
 6d4:	0b1c0e03 	add	w3, w16, w28, lsl #3
 6d8:	24040000 	cmphs	p0.b, p0/z, z0.b, z4.b
 6dc:	3e0b0b00 	.inst	0x3e0b0b00 ; undefined
 6e0:	000e030b 	.inst	0x000e030b ; undefined
 6e4:	00240500 	.inst	0x00240500 ; NYI
 6e8:	0b3e0b0b 	add	w11, w24, w30, uxtb #2
 6ec:	00000803 	.inst	0x00000803 ; undefined
 6f0:	03001606 	.inst	0x03001606 ; undefined
 6f4:	3b0b3a0e 	.inst	0x3b0b3a0e ; undefined
 6f8:	0013490b 	.inst	0x0013490b ; undefined
 6fc:	01130700 	.inst	0x01130700 ; undefined
 700:	0b0b0e03 	add	w3, w16, w11, lsl #3
 704:	0b3b0b3a 	add	w26, w25, w27, uxtb #2
 708:	00001301 	.inst	0x00001301 ; undefined
 70c:	03000d08 	.inst	0x03000d08 ; undefined
 710:	3b0b3a0e 	.inst	0x3b0b3a0e ; undefined
 714:	3813490b 	sttrb	w11, [x8, #-204]
 718:	0900000b 	.inst	0x0900000b ; undefined
 71c:	0803000d 	stxrb	w3, w13, [x0]
 720:	0b3b0b3a 	add	w26, w25, w27, uxtb #2
 724:	0b381349 	add	w9, w26, w24, uxtb #4
 728:	350a0000 	cbnz	w0, 14728 <_start-0x6b8d8>
 72c:	00134900 	.inst	0x00134900 ; undefined
 730:	00340b00 	.inst	0x00340b00 ; NYI
 734:	0b3a0e03 	add	w3, w16, w26, uxtb #3
 738:	13490b3b 	.inst	0x13490b3b ; undefined
 73c:	0f0c0000 	.inst	0x0f0c0000 ; undefined
 740:	490b0b00 	.inst	0x490b0b00 ; undefined
 744:	0d000013 	st1	{v19.b}[0], [x0]
 748:	193f002e 	.inst	0x193f002e ; undefined
 74c:	0b3a0e03 	add	w3, w16, w26, uxtb #3
 750:	19270b3b 	.inst	0x19270b3b ; undefined
 754:	01111349 	.inst	0x01111349 ; undefined
 758:	18400712 	ldr	w18, 80838 <vsnprintf+0xdc>
 75c:	00194297 	.inst	0x00194297 ; undefined
 760:	002e0e00 	.inst	0x002e0e00 ; NYI
 764:	0e03193f 	uzp1	v31.8b, v9.8b, v3.8b
 768:	0b3b0b3a 	add	w26, w25, w27, uxtb #2
 76c:	01111927 	.inst	0x01111927 ; undefined
 770:	18400712 	ldr	w18, 80850 <vsnprintf+0xf4>
 774:	00194297 	.inst	0x00194297 ; undefined
 778:	012e0f00 	.inst	0x012e0f00 ; undefined
 77c:	0e03193f 	uzp1	v31.8b, v9.8b, v3.8b
 780:	0b3b0b3a 	add	w26, w25, w27, uxtb #2
 784:	13491927 	.inst	0x13491927 ; undefined
 788:	07120111 	.inst	0x07120111 ; undefined
 78c:	42971840 	.inst	0x42971840 ; undefined
 790:	00130119 	.inst	0x00130119 ; undefined
 794:	00051000 	.inst	0x00051000 ; undefined
 798:	0b3a0803 	add	w3, w0, w26, uxtb #2
 79c:	13490b3b 	.inst	0x13490b3b ; undefined
 7a0:	00001702 	.inst	0x00001702 ; undefined
 7a4:	01828911 	.inst	0x01828911 ; undefined
 7a8:	31011101 	adds	w1, w8, #0x44
 7ac:	12000013 	and	w19, w0, #0x1
 7b0:	0001828a 	.inst	0x0001828a ; undefined
 7b4:	42911802 	.inst	0x42911802 ; undefined
 7b8:	13000018 	sbfx	w24, w0, #0, #1
 7bc:	193f012e 	.inst	0x193f012e ; undefined
 7c0:	0b3a0e03 	add	w3, w16, w26, uxtb #3
 7c4:	19270b3b 	.inst	0x19270b3b ; undefined
 7c8:	07120111 	.inst	0x07120111 ; undefined
 7cc:	42971840 	.inst	0x42971840 ; undefined
 7d0:	00130119 	.inst	0x00130119 ; undefined
 7d4:	00341400 	.inst	0x00341400 ; NYI
 7d8:	0b3a0803 	add	w3, w0, w26, uxtb #2
 7dc:	13490b3b 	.inst	0x13490b3b ; undefined
 7e0:	0000061c 	.inst	0x0000061c ; undefined
 7e4:	01828915 	.inst	0x01828915 ; undefined
 7e8:	31011101 	adds	w1, w8, #0x44
 7ec:	00130113 	.inst	0x00130113 ; undefined
 7f0:	002e1600 	.inst	0x002e1600 ; NYI
 7f4:	193c193f 	.inst	0x193c193f ; undefined
 7f8:	0e030e6e 	dup	v14.8b, w19
 7fc:	0b3b0b3a 	add	w26, w25, w27, uxtb #2
 800:	01000000 	.inst	0x01000000 ; undefined
 804:	0e250111 	saddl	v17.8h, v8.8b, v5.8b
 808:	0e030b13 	.inst	0x0e030b13 ; undefined
 80c:	01110e1b 	.inst	0x01110e1b ; undefined
 810:	17100712 	b	fffffffffc402458 <__bss_end__+0xfffffffffc381518>
 814:	24020000 	cmphs	p0.b, p0/z, z0.b, z2.b
 818:	3e0b0b00 	.inst	0x3e0b0b00 ; undefined
 81c:	0008030b 	.inst	0x0008030b ; undefined
 820:	01040300 	.inst	0x01040300 ; undefined
 824:	0b0b0b3e 	add	w30, w25, w11, lsl #2
 828:	0b3a1349 	add	w9, w26, w26, uxtb #4
 82c:	13010b3b 	sbfx	w27, w25, #1, #2
 830:	28040000 	stnp	w0, w0, [x0, #32]
 834:	1c0e0300 	ldr	s0, 1c894 <_start-0x6376c>
 838:	0500000b 	orr	z11.s, z11.s, #0x1
 83c:	0b0b0024 	add	w4, w1, w11
 840:	0e030b3e 	.inst	0x0e030b3e ; undefined
 844:	2e060000 	ext	v0.8b, v0.8b, v6.8b, #0
 848:	03193f01 	.inst	0x03193f01 ; undefined
 84c:	3b0b3a0e 	.inst	0x3b0b3a0e ; undefined
 850:	4919270b 	.inst	0x4919270b ; undefined
 854:	12011113 	and	w19, w8, #0x8000000f
 858:	97184007 	bl	fffffffffc610874 <__bss_end__+0xfffffffffc58f934>
 85c:	13011942 	sbfx	w2, w10, #1, #6
 860:	89070000 	.inst	0x89070000 ; undefined
 864:	11000182 	add	w2, w12, #0x0
 868:	00133101 	.inst	0x00133101 ; undefined
 86c:	82890800 	.inst	0x82890800 ; undefined
 870:	01110101 	.inst	0x01110101 ; undefined
 874:	13011331 	sbfx	w17, w25, #1, #4
 878:	8a090000 	and	x0, x0, x9
 87c:	02000182 	.inst	0x02000182 ; undefined
 880:	18429118 	ldr	w24, 85aa0 <__bss_end__+0x4b60>
 884:	890a0000 	.inst	0x890a0000 ; undefined
 888:	11010182 	add	w2, w12, #0x40
 88c:	00133101 	.inst	0x00133101 ; undefined
 890:	00340b00 	.inst	0x00340b00 ; NYI
 894:	0b3a0803 	add	w3, w0, w26, uxtb #2
 898:	13490b3b 	.inst	0x13490b3b ; undefined
 89c:	00000b1c 	.inst	0x00000b1c ; undefined
 8a0:	0300340c 	.inst	0x0300340c ; undefined
 8a4:	3b0b3a08 	.inst	0x3b0b3a08 ; undefined
 8a8:	0213490b 	.inst	0x0213490b ; undefined
 8ac:	0d000017 	st1	{v23.b}[0], [x0]
 8b0:	08030005 	stxrb	w3, w5, [x0]
 8b4:	0b3b0b3a 	add	w26, w25, w27, uxtb #2
 8b8:	17021349 	b	fffffffffc0855dc <__bss_end__+0xfffffffffc00469c>
 8bc:	340e0000 	cbz	w0, 1c8bc <_start-0x63744>
 8c0:	3a0e0300 	adcs	w0, w24, w14
 8c4:	490b3b0b 	.inst	0x490b3b0b ; undefined
 8c8:	00180213 	.inst	0x00180213 ; undefined
 8cc:	010b0f00 	.inst	0x010b0f00 ; undefined
 8d0:	07120111 	.inst	0x07120111 ; undefined
 8d4:	00001301 	.inst	0x00001301 ; undefined
 8d8:	49010110 	.inst	0x49010110 ; undefined
 8dc:	00130113 	.inst	0x00130113 ; undefined
 8e0:	00211100 	.inst	0x00211100 ; NYI
 8e4:	0b2f1349 	add	w9, w26, w15, uxtb #4
 8e8:	2e120000 	ext	v0.8b, v0.8b, v18.8b, #0
 8ec:	03193f01 	.inst	0x03193f01 ; undefined
 8f0:	3b0b3a08 	.inst	0x3b0b3a08 ; undefined
 8f4:	4919270b 	.inst	0x4919270b ; undefined
 8f8:	12011113 	and	w19, w8, #0x8000000f
 8fc:	97184007 	bl	fffffffffc610918 <__bss_end__+0xfffffffffc58f9d8>
 900:	13011942 	sbfx	w2, w10, #1, #6
 904:	34130000 	cbz	w0, 26904 <_start-0x596fc>
 908:	3a0e0300 	adcs	w0, w24, w14
 90c:	490b3b0b 	.inst	0x490b3b0b ; undefined
 910:	00170213 	.inst	0x00170213 ; undefined
 914:	002e1400 	.inst	0x002e1400 ; NYI
 918:	193c193f 	.inst	0x193c193f ; undefined
 91c:	0e030e6e 	dup	v14.8b, w19
 920:	0b3b0b3a 	add	w26, w25, w27, uxtb #2
 924:	Address 0x0000000000000924 is out of bounds.


Disassembly of section .debug_loc:

0000000000000000 <.debug_loc>:
       0:	00000014 	.inst	0x00000014 ; undefined
       4:	00000000 	.inst	0x00000000 ; undefined
       8:	0000001c 	.inst	0x0000001c ; undefined
       c:	00000000 	.inst	0x00000000 ; undefined
      10:	04700003 	add	z3.h, z0.h, z16.h
      14:	00001c9f 	.inst	0x00001c9f ; undefined
      18:	00000000 	.inst	0x00000000 ; undefined
      1c:	00002f00 	.inst	0x00002f00 ; undefined
      20:	00000000 	.inst	0x00000000 ; undefined
      24:	50000100 	adr	x0, 46 <_start-0x7ffba>
	...
      38:	0000028c 	.inst	0x0000028c ; undefined
      3c:	00000000 	.inst	0x00000000 ; undefined
      40:	0000029f 	.inst	0x0000029f ; undefined
      44:	00000000 	.inst	0x00000000 ; undefined
      48:	9f500001 	.inst	0x9f500001 ; undefined
      4c:	00000002 	.inst	0x00000002 ; undefined
      50:	bc000000 	stur	s0, [x0]
      54:	00000002 	.inst	0x00000002 ; undefined
      58:	01000000 	.inst	0x01000000 ; undefined
      5c:	02bc6400 	.inst	0x02bc6400 ; undefined
      60:	00000000 	.inst	0x00000000 ; undefined
      64:	02c40000 	.inst	0x02c40000 ; undefined
      68:	00000000 	.inst	0x00000000 ; undefined
      6c:	00040000 	.inst	0x00040000 ; undefined
      70:	9f5001f3 	.inst	0x9f5001f3 ; undefined
	...
      84:	000002a4 	.inst	0x000002a4 ; undefined
      88:	00000000 	.inst	0x00000000 ; undefined
      8c:	000002a8 	.inst	0x000002a8 ; undefined
      90:	00000000 	.inst	0x00000000 ; undefined
      94:	a8500001 	ldnp	x1, x0, [x0, #256]
      98:	00000002 	.inst	0x00000002 ; undefined
      9c:	bc000000 	stur	s0, [x0]
      a0:	00000002 	.inst	0x00000002 ; undefined
      a4:	01000000 	.inst	0x01000000 ; undefined
      a8:	00006300 	.inst	0x00006300 ; undefined
	...
      b8:	02ac0000 	.inst	0x02ac0000 ; undefined
      bc:	00000000 	.inst	0x00000000 ; undefined
      c0:	02b40000 	.inst	0x02b40000 ; undefined
      c4:	00000000 	.inst	0x00000000 ; undefined
      c8:	00010000 	.inst	0x00010000 ; undefined
      cc:	00000050 	.inst	0x00000050 ; undefined
	...
      dc:	00023800 	.inst	0x00023800 ; undefined
      e0:	00000000 	.inst	0x00000000 ; undefined
      e4:	00025300 	.inst	0x00025300 ; undefined
      e8:	00000000 	.inst	0x00000000 ; undefined
      ec:	50000100 	adr	x0, 10e <_start-0x7fef2>
      f0:	00000253 	.inst	0x00000253 ; undefined
      f4:	00000000 	.inst	0x00000000 ; undefined
      f8:	00000274 	.inst	0x00000274 ; undefined
      fc:	00000000 	.inst	0x00000000 ; undefined
     100:	74640001 	.inst	0x74640001 ; undefined
     104:	00000002 	.inst	0x00000002 ; undefined
     108:	80000000 	.inst	0x80000000 ; undefined
     10c:	00000002 	.inst	0x00000002 ; undefined
     110:	04000000 	add	z0.b, p0/m, z0.b, z0.b
     114:	5001f300 	adr	x0, 3f76 <_start-0x7c08a>
     118:	0002809f 	.inst	0x0002809f ; undefined
     11c:	00000000 	.inst	0x00000000 ; undefined
     120:	00028c00 	.inst	0x00028c00 ; undefined
     124:	00000000 	.inst	0x00000000 ; undefined
     128:	64000100 	.inst	0x64000100 ; undefined
	...
     13c:	00000238 	.inst	0x00000238 ; undefined
     140:	00000000 	.inst	0x00000000 ; undefined
     144:	00000253 	.inst	0x00000253 ; undefined
     148:	00000000 	.inst	0x00000000 ; undefined
     14c:	53510001 	.inst	0x53510001 ; undefined
     150:	00000002 	.inst	0x00000002 ; undefined
     154:	78000000 	sturh	w0, [x0]
     158:	00000002 	.inst	0x00000002 ; undefined
     15c:	01000000 	.inst	0x01000000 ; undefined
     160:	02786500 	.inst	0x02786500 ; undefined
     164:	00000000 	.inst	0x00000000 ; undefined
     168:	02800000 	.inst	0x02800000 ; undefined
     16c:	00000000 	.inst	0x00000000 ; undefined
     170:	00040000 	.inst	0x00040000 ; undefined
     174:	9f5101f3 	.inst	0x9f5101f3 ; undefined
     178:	00000280 	.inst	0x00000280 ; undefined
     17c:	00000000 	.inst	0x00000000 ; undefined
     180:	0000028c 	.inst	0x0000028c ; undefined
     184:	00000000 	.inst	0x00000000 ; undefined
     188:	00650001 	.inst	0x00650001 ; undefined
	...
     198:	64000000 	.inst	0x64000000 ; undefined
     19c:	00000002 	.inst	0x00000002 ; undefined
     1a0:	80000000 	.inst	0x80000000 ; undefined
     1a4:	00000002 	.inst	0x00000002 ; undefined
     1a8:	01000000 	.inst	0x01000000 ; undefined
     1ac:	02885000 	.inst	0x02885000 ; undefined
     1b0:	00000000 	.inst	0x00000000 ; undefined
     1b4:	028c0000 	.inst	0x028c0000 ; undefined
     1b8:	00000000 	.inst	0x00000000 ; undefined
     1bc:	00010000 	.inst	0x00010000 ; undefined
     1c0:	00000050 	.inst	0x00000050 ; undefined
	...
     1d0:	00025800 	.inst	0x00025800 ; undefined
     1d4:	00000000 	.inst	0x00000000 ; undefined
     1d8:	00026000 	.inst	0x00026000 ; undefined
     1dc:	00000000 	.inst	0x00000000 ; undefined
     1e0:	50000100 	adr	x0, 202 <_start-0x7fdfe>
     1e4:	00000260 	.inst	0x00000260 ; undefined
     1e8:	00000000 	.inst	0x00000000 ; undefined
     1ec:	00000274 	.inst	0x00000274 ; undefined
     1f0:	00000000 	.inst	0x00000000 ; undefined
     1f4:	80630001 	.inst	0x80630001 ; undefined
     1f8:	00000002 	.inst	0x00000002 ; undefined
     1fc:	84000000 	ld1sb	{z0.s}, p0/z, [x0, z0.s, uxtw]
     200:	00000002 	.inst	0x00000002 ; undefined
     204:	01000000 	.inst	0x01000000 ; undefined
     208:	02845000 	.inst	0x02845000 ; undefined
     20c:	00000000 	.inst	0x00000000 ; undefined
     210:	028c0000 	.inst	0x028c0000 ; undefined
     214:	00000000 	.inst	0x00000000 ; undefined
     218:	00010000 	.inst	0x00010000 ; undefined
     21c:	00000063 	.inst	0x00000063 ; undefined
	...
     22c:	00022000 	.inst	0x00022000 ; undefined
     230:	00000000 	.inst	0x00000000 ; undefined
     234:	00022f00 	.inst	0x00022f00 ; undefined
     238:	00000000 	.inst	0x00000000 ; undefined
     23c:	50000100 	adr	x0, 25e <_start-0x7fda2>
     240:	0000022f 	.inst	0x0000022f ; undefined
     244:	00000000 	.inst	0x00000000 ; undefined
     248:	00000238 	.inst	0x00000238 ; undefined
     24c:	00000000 	.inst	0x00000000 ; undefined
     250:	01f30004 	.inst	0x01f30004 ; undefined
     254:	00009f50 	.inst	0x00009f50 ; undefined
	...
     264:	02080000 	.inst	0x02080000 ; undefined
     268:	00000000 	.inst	0x00000000 ; undefined
     26c:	02170000 	.inst	0x02170000 ; undefined
     270:	00000000 	.inst	0x00000000 ; undefined
     274:	00010000 	.inst	0x00010000 ; undefined
     278:	00021750 	.inst	0x00021750 ; undefined
     27c:	00000000 	.inst	0x00000000 ; undefined
     280:	00022000 	.inst	0x00022000 ; undefined
     284:	00000000 	.inst	0x00000000 ; undefined
     288:	f3000400 	.inst	0xf3000400 ; undefined
     28c:	009f5001 	.inst	0x009f5001 ; undefined
	...
     29c:	ac000000 	stnp	q0, q0, [x0]
     2a0:	00000001 	.inst	0x00000001 ; undefined
     2a4:	bf000000 	.inst	0xbf000000 ; undefined
     2a8:	00000001 	.inst	0x00000001 ; undefined
     2ac:	01000000 	.inst	0x01000000 ; undefined
     2b0:	01bf5000 	.inst	0x01bf5000 ; undefined
     2b4:	00000000 	.inst	0x00000000 ; undefined
     2b8:	01f80000 	.inst	0x01f80000 ; undefined
     2bc:	00000000 	.inst	0x00000000 ; undefined
     2c0:	00010000 	.inst	0x00010000 ; undefined
     2c4:	0001f863 	.inst	0x0001f863 ; undefined
     2c8:	00000000 	.inst	0x00000000 ; undefined
     2cc:	00020000 	.inst	0x00020000 ; undefined
     2d0:	00000000 	.inst	0x00000000 ; undefined
     2d4:	f3000400 	.inst	0xf3000400 ; undefined
     2d8:	009f5001 	.inst	0x009f5001 ; undefined
     2dc:	00000002 	.inst	0x00000002 ; undefined
     2e0:	08000000 	stxrb	w0, w0, [x0]
     2e4:	00000002 	.inst	0x00000002 ; undefined
     2e8:	01000000 	.inst	0x01000000 ; undefined
     2ec:	00006300 	.inst	0x00006300 ; undefined
	...
     2fc:	01bc0000 	.inst	0x01bc0000 ; undefined
     300:	00000000 	.inst	0x00000000 ; undefined
     304:	01e00000 	.inst	0x01e00000 ; undefined
     308:	00000000 	.inst	0x00000000 ; undefined
     30c:	00020000 	.inst	0x00020000 ; undefined
     310:	01e09f30 	.inst	0x01e09f30 ; undefined
     314:	00000000 	.inst	0x00000000 ; undefined
     318:	01ec0000 	.inst	0x01ec0000 ; undefined
     31c:	00000000 	.inst	0x00000000 ; undefined
     320:	00010000 	.inst	0x00010000 ; undefined
     324:	00020051 	.inst	0x00020051 ; undefined
     328:	00000000 	.inst	0x00000000 ; undefined
     32c:	00020800 	.inst	0x00020800 ; undefined
     330:	00000000 	.inst	0x00000000 ; undefined
     334:	30000200 	adr	x0, 375 <_start-0x7fc8b>
     338:	0000009f 	.inst	0x0000009f ; undefined
	...
     348:	0001c000 	.inst	0x0001c000 ; undefined
     34c:	00000000 	.inst	0x00000000 ; undefined
     350:	0001e400 	.inst	0x0001e400 ; undefined
     354:	00000000 	.inst	0x00000000 ; undefined
     358:	50000100 	adr	x0, 37a <_start-0x7fc86>
     35c:	00000200 	.inst	0x00000200 ; undefined
     360:	00000000 	.inst	0x00000000 ; undefined
     364:	00000204 	.inst	0x00000204 ; undefined
     368:	00000000 	.inst	0x00000000 ; undefined
     36c:	00500001 	.inst	0x00500001 ; undefined
	...
     37c:	34000000 	cbz	w0, 37c <_start-0x7fc84>
     380:	00000001 	.inst	0x00000001 ; undefined
     384:	63000000 	.inst	0x63000000 ; undefined
     388:	00000001 	.inst	0x00000001 ; undefined
     38c:	01000000 	.inst	0x01000000 ; undefined
     390:	01635000 	.inst	0x01635000 ; undefined
     394:	00000000 	.inst	0x00000000 ; undefined
     398:	01a00000 	.inst	0x01a00000 ; undefined
     39c:	00000000 	.inst	0x00000000 ; undefined
     3a0:	00010000 	.inst	0x00010000 ; undefined
     3a4:	0001a063 	.inst	0x0001a063 ; undefined
     3a8:	00000000 	.inst	0x00000000 ; undefined
     3ac:	0001a800 	.inst	0x0001a800 ; undefined
     3b0:	00000000 	.inst	0x00000000 ; undefined
     3b4:	f3000400 	.inst	0xf3000400 ; undefined
     3b8:	a89f5001 	stp	x1, x20, [x0], #496
     3bc:	00000001 	.inst	0x00000001 ; undefined
     3c0:	ac000000 	stnp	q0, q0, [x0]
     3c4:	00000001 	.inst	0x00000001 ; undefined
     3c8:	01000000 	.inst	0x01000000 ; undefined
     3cc:	00005000 	.inst	0x00005000 ; undefined
	...
     3dc:	01340000 	.inst	0x01340000 ; undefined
     3e0:	00000000 	.inst	0x00000000 ; undefined
     3e4:	01630000 	.inst	0x01630000 ; undefined
     3e8:	00000000 	.inst	0x00000000 ; undefined
     3ec:	00010000 	.inst	0x00010000 ; undefined
     3f0:	00016351 	.inst	0x00016351 ; undefined
     3f4:	00000000 	.inst	0x00000000 ; undefined
     3f8:	0001a000 	.inst	0x0001a000 ; undefined
     3fc:	00000000 	.inst	0x00000000 ; undefined
     400:	64000100 	.inst	0x64000100 ; undefined
     404:	000001a0 	.inst	0x000001a0 ; undefined
     408:	00000000 	.inst	0x00000000 ; undefined
     40c:	000001a8 	.inst	0x000001a8 ; undefined
     410:	00000000 	.inst	0x00000000 ; undefined
     414:	01f30004 	.inst	0x01f30004 ; undefined
     418:	01a89f51 	.inst	0x01a89f51 ; undefined
     41c:	00000000 	.inst	0x00000000 ; undefined
     420:	01ac0000 	.inst	0x01ac0000 ; undefined
     424:	00000000 	.inst	0x00000000 ; undefined
     428:	00010000 	.inst	0x00010000 ; undefined
     42c:	00000051 	.inst	0x00000051 ; undefined
	...
     43c:	00013400 	.inst	0x00013400 ; undefined
     440:	00000000 	.inst	0x00000000 ; undefined
     444:	00018400 	.inst	0x00018400 ; undefined
     448:	00000000 	.inst	0x00000000 ; undefined
     44c:	30000200 	adr	x0, 48d <_start-0x7fb73>
     450:	0001849f 	.inst	0x0001849f ; undefined
     454:	00000000 	.inst	0x00000000 ; undefined
     458:	00019c00 	.inst	0x00019c00 ; undefined
     45c:	00000000 	.inst	0x00000000 ; undefined
     460:	52000100 	eor	w0, w8, #0x1
     464:	000001a8 	.inst	0x000001a8 ; undefined
     468:	00000000 	.inst	0x00000000 ; undefined
     46c:	000001ac 	.inst	0x000001ac ; undefined
     470:	00000000 	.inst	0x00000000 ; undefined
     474:	9f300002 	.inst	0x9f300002 ; undefined
	...
     488:	00000164 	.inst	0x00000164 ; undefined
     48c:	00000000 	.inst	0x00000000 ; undefined
     490:	000001a8 	.inst	0x000001a8 ; undefined
     494:	00000000 	.inst	0x00000000 ; undefined
     498:	00500001 	.inst	0x00500001 ; undefined
	...
     4a8:	fc000000 	stur	d0, [x0]
     4ac:	00000000 	.inst	0x00000000 ; undefined
     4b0:	08000000 	stxrb	w0, w0, [x0]
     4b4:	00000001 	.inst	0x00000001 ; undefined
     4b8:	01000000 	.inst	0x01000000 ; undefined
     4bc:	01085000 	.inst	0x01085000 ; undefined
     4c0:	00000000 	.inst	0x00000000 ; undefined
     4c4:	01140000 	.inst	0x01140000 ; undefined
     4c8:	00000000 	.inst	0x00000000 ; undefined
     4cc:	00040000 	.inst	0x00040000 ; undefined
     4d0:	9f5001f3 	.inst	0x9f5001f3 ; undefined
     4d4:	00000114 	.inst	0x00000114 ; undefined
     4d8:	00000000 	.inst	0x00000000 ; undefined
     4dc:	00000118 	.inst	0x00000118 ; undefined
     4e0:	00000000 	.inst	0x00000000 ; undefined
     4e4:	18500001 	ldr	w1, a04e4 <__bss_end__+0x1f5a4>
     4e8:	00000001 	.inst	0x00000001 ; undefined
     4ec:	24000000 	cmphs	p0.b, p0/z, z0.b, z0.b
     4f0:	00000001 	.inst	0x00000001 ; undefined
     4f4:	04000000 	add	z0.b, p0/m, z0.b, z0.b
     4f8:	5001f300 	adr	x0, 435a <_start-0x7bca6>
     4fc:	0000009f 	.inst	0x0000009f ; undefined
	...
     50c:	0000d400 	.inst	0x0000d400 ; undefined
     510:	00000000 	.inst	0x00000000 ; undefined
     514:	0000e000 	.inst	0x0000e000 ; undefined
     518:	00000000 	.inst	0x00000000 ; undefined
     51c:	50000100 	adr	x0, 53e <_start-0x7fac2>
     520:	000000e0 	.inst	0x000000e0 ; undefined
     524:	00000000 	.inst	0x00000000 ; undefined
     528:	000000ec 	.inst	0x000000ec ; undefined
     52c:	00000000 	.inst	0x00000000 ; undefined
     530:	01f30004 	.inst	0x01f30004 ; undefined
     534:	00ec9f50 	.inst	0x00ec9f50 ; undefined
     538:	00000000 	.inst	0x00000000 ; undefined
     53c:	00f00000 	.inst	0x00f00000 ; undefined
     540:	00000000 	.inst	0x00000000 ; undefined
     544:	00010000 	.inst	0x00010000 ; undefined
     548:	0000f050 	.inst	0x0000f050 ; undefined
     54c:	00000000 	.inst	0x00000000 ; undefined
     550:	0000fc00 	.inst	0x0000fc00 ; undefined
     554:	00000000 	.inst	0x00000000 ; undefined
     558:	f3000400 	.inst	0xf3000400 ; undefined
     55c:	009f5001 	.inst	0x009f5001 ; undefined
	...
     56c:	ac000000 	stnp	q0, q0, [x0]
     570:	00000000 	.inst	0x00000000 ; undefined
     574:	b8000000 	stur	w0, [x0]
     578:	00000000 	.inst	0x00000000 ; undefined
     57c:	01000000 	.inst	0x01000000 ; undefined
     580:	00b85000 	.inst	0x00b85000 ; undefined
     584:	00000000 	.inst	0x00000000 ; undefined
     588:	00c40000 	.inst	0x00c40000 ; undefined
     58c:	00000000 	.inst	0x00000000 ; undefined
     590:	00040000 	.inst	0x00040000 ; undefined
     594:	9f5001f3 	.inst	0x9f5001f3 ; undefined
     598:	000000c4 	.inst	0x000000c4 ; undefined
     59c:	00000000 	.inst	0x00000000 ; undefined
     5a0:	000000c8 	.inst	0x000000c8 ; undefined
     5a4:	00000000 	.inst	0x00000000 ; undefined
     5a8:	c8500001 	ldxr	x1, [x0]
     5ac:	00000000 	.inst	0x00000000 ; undefined
     5b0:	d4000000 	.inst	0xd4000000 ; undefined
     5b4:	00000000 	.inst	0x00000000 ; undefined
     5b8:	04000000 	add	z0.b, p0/m, z0.b, z0.b
     5bc:	5001f300 	adr	x0, 441e <_start-0x7bbe2>
     5c0:	0000009f 	.inst	0x0000009f ; undefined
	...
     5d0:	0000a400 	.inst	0x0000a400 ; undefined
     5d4:	00000000 	.inst	0x00000000 ; undefined
     5d8:	0000a800 	.inst	0x0000a800 ; undefined
     5dc:	00000000 	.inst	0x00000000 ; undefined
     5e0:	50000100 	adr	x0, 602 <_start-0x7f9fe>
     5e4:	000000a8 	.inst	0x000000a8 ; undefined
     5e8:	00000000 	.inst	0x00000000 ; undefined
     5ec:	000000ac 	.inst	0x000000ac ; undefined
     5f0:	00000000 	.inst	0x00000000 ; undefined
     5f4:	01f30004 	.inst	0x01f30004 ; undefined
     5f8:	00009f50 	.inst	0x00009f50 ; undefined
	...
     610:	000c0000 	.inst	0x000c0000 ; undefined
     614:	00000000 	.inst	0x00000000 ; undefined
     618:	00010000 	.inst	0x00010000 ; undefined
     61c:	00000c50 	.inst	0x00000c50 ; undefined
     620:	00000000 	.inst	0x00000000 ; undefined
     624:	0000a400 	.inst	0x0000a400 ; undefined
     628:	00000000 	.inst	0x00000000 ; undefined
     62c:	f3000400 	.inst	0xf3000400 ; undefined
     630:	009f5001 	.inst	0x009f5001 ; undefined
	...
     648:	40000000 	.inst	0x40000000 ; undefined
     64c:	00000000 	.inst	0x00000000 ; undefined
     650:	02000000 	.inst	0x02000000 ; undefined
     654:	409f3000 	.inst	0x409f3000 ; undefined
     658:	00000000 	.inst	0x00000000 ; undefined
     65c:	44000000 	.inst	0x44000000 ; undefined
     660:	00000000 	.inst	0x00000000 ; undefined
     664:	01000000 	.inst	0x01000000 ; undefined
     668:	00445000 	.inst	0x00445000 ; undefined
     66c:	00000000 	.inst	0x00000000 ; undefined
     670:	005c0000 	.inst	0x005c0000 ; undefined
     674:	00000000 	.inst	0x00000000 ; undefined
     678:	00020000 	.inst	0x00020000 ; undefined
     67c:	005c9f30 	.inst	0x005c9f30 ; undefined
     680:	00000000 	.inst	0x00000000 ; undefined
     684:	00600000 	.inst	0x00600000 ; undefined
     688:	00000000 	.inst	0x00000000 ; undefined
     68c:	00010000 	.inst	0x00010000 ; undefined
     690:	00006050 	.inst	0x00006050 ; undefined
     694:	00000000 	.inst	0x00000000 ; undefined
     698:	00006800 	.inst	0x00006800 ; undefined
     69c:	00000000 	.inst	0x00000000 ; undefined
     6a0:	30000200 	adr	x0, 6e1 <_start-0x7f91f>
     6a4:	00006c9f 	.inst	0x00006c9f ; undefined
     6a8:	00000000 	.inst	0x00000000 ; undefined
     6ac:	00007800 	.inst	0x00007800 ; undefined
     6b0:	00000000 	.inst	0x00000000 ; undefined
     6b4:	30000200 	adr	x0, 6f5 <_start-0x7f90b>
     6b8:	0000789f 	.inst	0x0000789f ; undefined
     6bc:	00000000 	.inst	0x00000000 ; undefined
     6c0:	00007c00 	.inst	0x00007c00 ; undefined
     6c4:	00000000 	.inst	0x00000000 ; undefined
     6c8:	50000100 	adr	x0, 6ea <_start-0x7f916>
     6cc:	0000007c 	.inst	0x0000007c ; undefined
     6d0:	00000000 	.inst	0x00000000 ; undefined
     6d4:	00000088 	.inst	0x00000088 ; undefined
     6d8:	00000000 	.inst	0x00000000 ; undefined
     6dc:	9f300002 	.inst	0x9f300002 ; undefined
     6e0:	00000088 	.inst	0x00000088 ; undefined
     6e4:	00000000 	.inst	0x00000000 ; undefined
     6e8:	0000008c 	.inst	0x0000008c ; undefined
     6ec:	00000000 	.inst	0x00000000 ; undefined
     6f0:	8c500001 	.inst	0x8c500001 ; undefined
     6f4:	00000000 	.inst	0x00000000 ; undefined
     6f8:	98000000 	ldrsw	x0, 6f8 <_start-0x7f908>
     6fc:	00000000 	.inst	0x00000000 ; undefined
     700:	02000000 	.inst	0x02000000 ; undefined
     704:	989f3000 	ldrsw	x0, fffffffffff3ed04 <__bss_end__+0xffffffffffebddc4>
     708:	00000000 	.inst	0x00000000 ; undefined
     70c:	9c000000 	ldr	q0, 70c <_start-0x7f8f4>
     710:	00000000 	.inst	0x00000000 ; undefined
     714:	01000000 	.inst	0x01000000 ; undefined
     718:	009c5000 	.inst	0x009c5000 ; undefined
     71c:	00000000 	.inst	0x00000000 ; undefined
     720:	00a40000 	.inst	0x00a40000 ; undefined
     724:	00000000 	.inst	0x00000000 ; undefined
     728:	00020000 	.inst	0x00020000 ; undefined
     72c:	00009f30 	.inst	0x00009f30 ; undefined
	...
     73c:	00140000 	.inst	0x00140000 ; undefined
     740:	00000000 	.inst	0x00000000 ; undefined
     744:	00380000 	.inst	0x00380000 ; NYI
     748:	00000000 	.inst	0x00000000 ; undefined
     74c:	00010000 	.inst	0x00010000 ; undefined
     750:	00003850 	.inst	0x00003850 ; undefined
     754:	00000000 	.inst	0x00000000 ; undefined
     758:	00004400 	.inst	0x00004400 ; undefined
     75c:	00000000 	.inst	0x00000000 ; undefined
     760:	f3001800 	.inst	0xf3001800 ; undefined
     764:	ff0c5001 	.inst	0xff0c5001 ; undefined
     768:	1affffff 	.inst	0x1affffff ; undefined
     76c:	ff0c0071 	.inst	0xff0c0071 ; undefined
     770:	1affffff 	.inst	0x1affffff ; undefined
     774:	2520081e 	.inst	0x2520081e ; undefined
     778:	449f2533 	.inst	0x449f2533 ; undefined
     77c:	00000000 	.inst	0x00000000 ; undefined
     780:	54000000 	b.eq	780 <_start-0x7f880>  // b.none
     784:	00000000 	.inst	0x00000000 ; undefined
     788:	01000000 	.inst	0x01000000 ; undefined
     78c:	00545000 	.inst	0x00545000 ; undefined
     790:	00000000 	.inst	0x00000000 ; undefined
     794:	00600000 	.inst	0x00600000 ; undefined
     798:	00000000 	.inst	0x00000000 ; undefined
     79c:	00180000 	.inst	0x00180000 ; undefined
     7a0:	0c5001f3 	.inst	0x0c5001f3 ; undefined
     7a4:	ffffffff 	.inst	0xffffffff ; undefined
     7a8:	0c00711a 	st1	{v26.8b}, [x8]
     7ac:	ffffffff 	.inst	0xffffffff ; undefined
     7b0:	20081e1a 	.inst	0x20081e1a ; undefined
     7b4:	9f253325 	.inst	0x9f253325 ; undefined
     7b8:	00000060 	.inst	0x00000060 ; undefined
     7bc:	00000000 	.inst	0x00000000 ; undefined
     7c0:	00000064 	.inst	0x00000064 ; undefined
     7c4:	00000000 	.inst	0x00000000 ; undefined
     7c8:	64500001 	fcmla	z1.h, p0/m, z0.h, z16.h, #0
     7cc:	00000000 	.inst	0x00000000 ; undefined
     7d0:	6c000000 	stnp	d0, d0, [x0]
     7d4:	00000000 	.inst	0x00000000 ; undefined
     7d8:	18000000 	ldr	w0, 7d8 <_start-0x7f828>
     7dc:	5001f300 	adr	x0, 463e <_start-0x7b9c2>
     7e0:	ffffff0c 	.inst	0xffffff0c ; undefined
     7e4:	00711aff 	.inst	0x00711aff ; undefined
     7e8:	ffffff0c 	.inst	0xffffff0c ; undefined
     7ec:	081e1aff 	stxrb	w30, wzr, [x23]
     7f0:	25332520 	.inst	0x25332520 ; undefined
     7f4:	00006c9f 	.inst	0x00006c9f ; undefined
     7f8:	00000000 	.inst	0x00000000 ; undefined
     7fc:	00007000 	.inst	0x00007000 ; undefined
     800:	00000000 	.inst	0x00000000 ; undefined
     804:	50000100 	adr	x0, 826 <_start-0x7f7da>
     808:	00000070 	.inst	0x00000070 ; undefined
     80c:	00000000 	.inst	0x00000000 ; undefined
     810:	0000007c 	.inst	0x0000007c ; undefined
     814:	00000000 	.inst	0x00000000 ; undefined
     818:	01f30018 	.inst	0x01f30018 ; undefined
     81c:	ffff0c50 	.inst	0xffff0c50 ; undefined
     820:	711affff 	cmp	wsp, #0x6bf
     824:	ffff0c00 	.inst	0xffff0c00 ; undefined
     828:	1e1affff 	.inst	0x1e1affff ; undefined
     82c:	33252008 	.inst	0x33252008 ; undefined
     830:	007c9f25 	.inst	0x007c9f25 ; undefined
     834:	00000000 	.inst	0x00000000 ; undefined
     838:	00800000 	.inst	0x00800000 ; undefined
     83c:	00000000 	.inst	0x00000000 ; undefined
     840:	00010000 	.inst	0x00010000 ; undefined
     844:	00008050 	.inst	0x00008050 ; undefined
     848:	00000000 	.inst	0x00000000 ; undefined
     84c:	00008c00 	.inst	0x00008c00 ; undefined
     850:	00000000 	.inst	0x00000000 ; undefined
     854:	f3001800 	.inst	0xf3001800 ; undefined
     858:	ff0c5001 	.inst	0xff0c5001 ; undefined
     85c:	1affffff 	.inst	0x1affffff ; undefined
     860:	ff0c0071 	.inst	0xff0c0071 ; undefined
     864:	1affffff 	.inst	0x1affffff ; undefined
     868:	2520081e 	.inst	0x2520081e ; undefined
     86c:	8c9f2533 	.inst	0x8c9f2533 ; undefined
     870:	00000000 	.inst	0x00000000 ; undefined
     874:	90000000 	adrp	x0, 0 <_start-0x80000>
     878:	00000000 	.inst	0x00000000 ; undefined
     87c:	01000000 	.inst	0x01000000 ; undefined
     880:	00905000 	.inst	0x00905000 ; undefined
     884:	00000000 	.inst	0x00000000 ; undefined
     888:	009c0000 	.inst	0x009c0000 ; undefined
     88c:	00000000 	.inst	0x00000000 ; undefined
     890:	00180000 	.inst	0x00180000 ; undefined
     894:	0c5001f3 	.inst	0x0c5001f3 ; undefined
     898:	ffffffff 	.inst	0xffffffff ; undefined
     89c:	0c00711a 	st1	{v26.8b}, [x8]
     8a0:	ffffffff 	.inst	0xffffffff ; undefined
     8a4:	20081e1a 	.inst	0x20081e1a ; undefined
     8a8:	9f253325 	.inst	0x9f253325 ; undefined
     8ac:	0000009c 	.inst	0x0000009c ; undefined
     8b0:	00000000 	.inst	0x00000000 ; undefined
     8b4:	000000a0 	.inst	0x000000a0 ; undefined
     8b8:	00000000 	.inst	0x00000000 ; undefined
     8bc:	a0500001 	.inst	0xa0500001 ; undefined
     8c0:	00000000 	.inst	0x00000000 ; undefined
     8c4:	a4000000 	ld1rqb	{z0.b}, p0/z, [x0, x0]
     8c8:	00000000 	.inst	0x00000000 ; undefined
     8cc:	18000000 	ldr	w0, 8cc <_start-0x7f734>
     8d0:	5001f300 	adr	x0, 4732 <_start-0x7b8ce>
     8d4:	ffffff0c 	.inst	0xffffff0c ; undefined
     8d8:	00711aff 	.inst	0x00711aff ; undefined
     8dc:	ffffff0c 	.inst	0xffffff0c ; undefined
     8e0:	081e1aff 	stxrb	w30, wzr, [x23]
     8e4:	25332520 	.inst	0x25332520 ; undefined
     8e8:	0000009f 	.inst	0x0000009f ; undefined
	...
     8f8:	00008000 	.inst	0x00008000 ; undefined
     8fc:	00000000 	.inst	0x00000000 ; undefined
     900:	00009400 	.inst	0x00009400 ; undefined
     904:	00000000 	.inst	0x00000000 ; undefined
     908:	50000100 	adr	x0, 92a <_start-0x7f6d6>
     90c:	00000094 	.inst	0x00000094 ; undefined
     910:	00000000 	.inst	0x00000000 ; undefined
     914:	000000a0 	.inst	0x000000a0 ; undefined
     918:	00000000 	.inst	0x00000000 ; undefined
     91c:	01f30004 	.inst	0x01f30004 ; undefined
     920:	00009f50 	.inst	0x00009f50 ; undefined
	...
     930:	00640000 	.inst	0x00640000 ; undefined
     934:	00000000 	.inst	0x00000000 ; undefined
     938:	00740000 	.inst	0x00740000 ; undefined
     93c:	00000000 	.inst	0x00000000 ; undefined
     940:	00010000 	.inst	0x00010000 ; undefined
     944:	00007450 	.inst	0x00007450 ; undefined
     948:	00000000 	.inst	0x00000000 ; undefined
     94c:	00008000 	.inst	0x00008000 ; undefined
     950:	00000000 	.inst	0x00000000 ; undefined
     954:	f3000400 	.inst	0xf3000400 ; undefined
     958:	009f5001 	.inst	0x009f5001 ; undefined
	...
     968:	30000000 	adr	x0, 969 <_start-0x7f697>
     96c:	00000000 	.inst	0x00000000 ; undefined
     970:	43000000 	.inst	0x43000000 ; undefined
     974:	00000000 	.inst	0x00000000 ; undefined
     978:	01000000 	.inst	0x01000000 ; undefined
     97c:	00435000 	.inst	0x00435000 ; undefined
     980:	00000000 	.inst	0x00000000 ; undefined
     984:	005c0000 	.inst	0x005c0000 ; undefined
     988:	00000000 	.inst	0x00000000 ; undefined
     98c:	00010000 	.inst	0x00010000 ; undefined
     990:	00005c64 	.inst	0x00005c64 ; undefined
     994:	00000000 	.inst	0x00000000 ; undefined
     998:	00006400 	.inst	0x00006400 ; undefined
     99c:	00000000 	.inst	0x00000000 ; undefined
     9a0:	f3000400 	.inst	0xf3000400 ; undefined
     9a4:	009f5001 	.inst	0x009f5001 ; undefined
	...
     9b4:	48000000 	stxrh	w0, w0, [x0]
     9b8:	00000000 	.inst	0x00000000 ; undefined
     9bc:	5c000000 	ldr	d0, 9bc <_start-0x7f644>
     9c0:	00000000 	.inst	0x00000000 ; undefined
     9c4:	01000000 	.inst	0x01000000 ; undefined
     9c8:	00006300 	.inst	0x00006300 ; undefined
	...
     9d8:	01b80000 	.inst	0x01b80000 ; undefined
     9dc:	00000000 	.inst	0x00000000 ; undefined
     9e0:	01d70000 	.inst	0x01d70000 ; undefined
     9e4:	00000000 	.inst	0x00000000 ; undefined
     9e8:	00010000 	.inst	0x00010000 ; undefined
     9ec:	0001d750 	.inst	0x0001d750 ; undefined
     9f0:	00000000 	.inst	0x00000000 ; undefined
     9f4:	00021c00 	.inst	0x00021c00 ; undefined
     9f8:	00000000 	.inst	0x00000000 ; undefined
     9fc:	64000100 	.inst	0x64000100 ; undefined
     a00:	0000021c 	.inst	0x0000021c ; undefined
     a04:	00000000 	.inst	0x00000000 ; undefined
     a08:	00000228 	.inst	0x00000228 ; undefined
     a0c:	00000000 	.inst	0x00000000 ; undefined
     a10:	01f30004 	.inst	0x01f30004 ; undefined
     a14:	00009f50 	.inst	0x00009f50 ; undefined
	...
     a24:	01b80000 	.inst	0x01b80000 ; undefined
     a28:	00000000 	.inst	0x00000000 ; undefined
     a2c:	01d70000 	.inst	0x01d70000 ; undefined
     a30:	00000000 	.inst	0x00000000 ; undefined
     a34:	00010000 	.inst	0x00010000 ; undefined
     a38:	0001d751 	.inst	0x0001d751 ; undefined
     a3c:	00000000 	.inst	0x00000000 ; undefined
     a40:	00021c00 	.inst	0x00021c00 ; undefined
     a44:	00000000 	.inst	0x00000000 ; undefined
     a48:	63000100 	.inst	0x63000100 ; undefined
     a4c:	0000021c 	.inst	0x0000021c ; undefined
     a50:	00000000 	.inst	0x00000000 ; undefined
     a54:	00000228 	.inst	0x00000228 ; undefined
     a58:	00000000 	.inst	0x00000000 ; undefined
     a5c:	01f30004 	.inst	0x01f30004 ; undefined
     a60:	00009f51 	.inst	0x00009f51 ; undefined
	...
     a70:	01b80000 	.inst	0x01b80000 ; undefined
     a74:	00000000 	.inst	0x00000000 ; undefined
     a78:	01d70000 	.inst	0x01d70000 ; undefined
     a7c:	00000000 	.inst	0x00000000 ; undefined
     a80:	00010000 	.inst	0x00010000 ; undefined
     a84:	0001d752 	.inst	0x0001d752 ; undefined
     a88:	00000000 	.inst	0x00000000 ; undefined
     a8c:	00022000 	.inst	0x00022000 ; undefined
     a90:	00000000 	.inst	0x00000000 ; undefined
     a94:	65000100 	.inst	0x65000100 ; undefined
     a98:	00000220 	.inst	0x00000220 ; undefined
     a9c:	00000000 	.inst	0x00000000 ; undefined
     aa0:	00000228 	.inst	0x00000228 ; undefined
     aa4:	00000000 	.inst	0x00000000 ; undefined
     aa8:	01f30004 	.inst	0x01f30004 ; undefined
     aac:	00009f52 	.inst	0x00009f52 ; undefined
	...
     abc:	01d80000 	.inst	0x01d80000 ; undefined
     ac0:	00000000 	.inst	0x00000000 ; undefined
     ac4:	02180000 	.inst	0x02180000 ; undefined
     ac8:	00000000 	.inst	0x00000000 ; undefined
     acc:	00010000 	.inst	0x00010000 ; undefined
     ad0:	00000050 	.inst	0x00000050 ; undefined
	...
     ae0:	0001d800 	.inst	0x0001d800 ; undefined
     ae4:	00000000 	.inst	0x00000000 ; undefined
     ae8:	0001e000 	.inst	0x0001e000 ; undefined
     aec:	00000000 	.inst	0x00000000 ; undefined
     af0:	30000200 	adr	x0, b31 <_start-0x7f4cf>
     af4:	0001e09f 	.inst	0x0001e09f ; undefined
     af8:	00000000 	.inst	0x00000000 ; undefined
     afc:	00022800 	.inst	0x00022800 ; undefined
     b00:	00000000 	.inst	0x00000000 ; undefined
     b04:	52000100 	eor	w0, w8, #0x1
	...
     b18:	00000178 	.inst	0x00000178 ; undefined
     b1c:	00000000 	.inst	0x00000000 ; undefined
     b20:	000001a7 	.inst	0x000001a7 ; undefined
     b24:	00000000 	.inst	0x00000000 ; undefined
     b28:	a7500001 	.inst	0xa7500001 ; undefined
     b2c:	00000001 	.inst	0x00000001 ; undefined
     b30:	b0000000 	adrp	x0, 1000 <_start-0x7f000>
     b34:	00000001 	.inst	0x00000001 ; undefined
     b38:	04000000 	add	z0.b, p0/m, z0.b, z0.b
     b3c:	5001f300 	adr	x0, 499e <_start-0x7b662>
     b40:	0001b09f 	.inst	0x0001b09f ; undefined
     b44:	00000000 	.inst	0x00000000 ; undefined
     b48:	0001b300 	.inst	0x0001b300 ; undefined
     b4c:	00000000 	.inst	0x00000000 ; undefined
     b50:	50000100 	adr	x0, b72 <_start-0x7f48e>
     b54:	000001b3 	.inst	0x000001b3 ; undefined
     b58:	00000000 	.inst	0x00000000 ; undefined
     b5c:	000001b8 	.inst	0x000001b8 ; undefined
     b60:	00000000 	.inst	0x00000000 ; undefined
     b64:	01f30004 	.inst	0x01f30004 ; undefined
     b68:	00009f50 	.inst	0x00009f50 ; undefined
	...
     b78:	01780000 	.inst	0x01780000 ; undefined
     b7c:	00000000 	.inst	0x00000000 ; undefined
     b80:	01a70000 	.inst	0x01a70000 ; undefined
     b84:	00000000 	.inst	0x00000000 ; undefined
     b88:	00010000 	.inst	0x00010000 ; undefined
     b8c:	0001a751 	.inst	0x0001a751 ; undefined
     b90:	00000000 	.inst	0x00000000 ; undefined
     b94:	0001b000 	.inst	0x0001b000 ; undefined
     b98:	00000000 	.inst	0x00000000 ; undefined
     b9c:	f3000400 	.inst	0xf3000400 ; undefined
     ba0:	b09f5101 	adrp	x1, ffffffff3ea21000 <__bss_end__+0xffffffff3e9a00c0>
     ba4:	00000001 	.inst	0x00000001 ; undefined
     ba8:	b3000000 	.inst	0xb3000000 ; undefined
     bac:	00000001 	.inst	0x00000001 ; undefined
     bb0:	01000000 	.inst	0x01000000 ; undefined
     bb4:	01b35100 	.inst	0x01b35100 ; undefined
     bb8:	00000000 	.inst	0x00000000 ; undefined
     bbc:	01b80000 	.inst	0x01b80000 ; undefined
     bc0:	00000000 	.inst	0x00000000 ; undefined
     bc4:	00040000 	.inst	0x00040000 ; undefined
     bc8:	9f5101f3 	.inst	0x9f5101f3 ; undefined
	...
     bdc:	00000110 	.inst	0x00000110 ; undefined
     be0:	00000000 	.inst	0x00000000 ; undefined
     be4:	0000012b 	.inst	0x0000012b ; undefined
     be8:	00000000 	.inst	0x00000000 ; undefined
     bec:	2b500001 	adds	w1, w0, w16, lsr #0
     bf0:	00000001 	.inst	0x00000001 ; undefined
     bf4:	4c000000 	st4	{v0.16b-v3.16b}, [x0]
     bf8:	00000001 	.inst	0x00000001 ; undefined
     bfc:	01000000 	.inst	0x01000000 ; undefined
     c00:	01546500 	.inst	0x01546500 ; undefined
     c04:	00000000 	.inst	0x00000000 ; undefined
     c08:	01780000 	.inst	0x01780000 ; undefined
     c0c:	00000000 	.inst	0x00000000 ; undefined
     c10:	00010000 	.inst	0x00010000 ; undefined
     c14:	00000065 	.inst	0x00000065 ; undefined
	...
     c24:	00011000 	.inst	0x00011000 ; undefined
     c28:	00000000 	.inst	0x00000000 ; undefined
     c2c:	00012b00 	.inst	0x00012b00 ; undefined
     c30:	00000000 	.inst	0x00000000 ; undefined
     c34:	51000100 	sub	w0, w8, #0x0
     c38:	0000012b 	.inst	0x0000012b ; undefined
     c3c:	00000000 	.inst	0x00000000 ; undefined
     c40:	00000148 	.inst	0x00000148 ; undefined
     c44:	00000000 	.inst	0x00000000 ; undefined
     c48:	54640001 	b.ne	c8c48 <__bss_end__+0x47d08>  // b.any
     c4c:	00000001 	.inst	0x00000001 ; undefined
     c50:	78000000 	sturh	w0, [x0]
     c54:	00000001 	.inst	0x00000001 ; undefined
     c58:	01000000 	.inst	0x01000000 ; undefined
     c5c:	00006400 	.inst	0x00006400 ; undefined
	...
     c6c:	01300000 	.inst	0x01300000 ; undefined
     c70:	00000000 	.inst	0x00000000 ; undefined
     c74:	01340000 	.inst	0x01340000 ; undefined
     c78:	00000000 	.inst	0x00000000 ; undefined
     c7c:	00010000 	.inst	0x00010000 ; undefined
     c80:	00013450 	.inst	0x00013450 ; undefined
     c84:	00000000 	.inst	0x00000000 ; undefined
     c88:	00014400 	.inst	0x00014400 ; undefined
     c8c:	00000000 	.inst	0x00000000 ; undefined
     c90:	63000100 	.inst	0x63000100 ; undefined
	...
     ca4:	00000138 	.inst	0x00000138 ; undefined
     ca8:	00000000 	.inst	0x00000000 ; undefined
     cac:	00000144 	.inst	0x00000144 ; undefined
     cb0:	00000000 	.inst	0x00000000 ; undefined
     cb4:	00500001 	.inst	0x00500001 ; undefined
	...
     cc4:	ec000000 	.inst	0xec000000 ; undefined
     cc8:	00000000 	.inst	0x00000000 ; undefined
     ccc:	f4000000 	.inst	0xf4000000 ; undefined
     cd0:	00000000 	.inst	0x00000000 ; undefined
     cd4:	01000000 	.inst	0x01000000 ; undefined
     cd8:	00f45000 	.inst	0x00f45000 ; undefined
     cdc:	00000000 	.inst	0x00000000 ; undefined
     ce0:	00fc0000 	.inst	0x00fc0000 ; undefined
     ce4:	00000000 	.inst	0x00000000 ; undefined
     ce8:	00010000 	.inst	0x00010000 ; undefined
     cec:	0000fc52 	.inst	0x0000fc52 ; undefined
     cf0:	00000000 	.inst	0x00000000 ; undefined
     cf4:	00010000 	.inst	0x00010000 ; undefined
     cf8:	00000000 	.inst	0x00000000 ; undefined
     cfc:	50000100 	adr	x0, d1e <_start-0x7f2e2>
     d00:	00000100 	.inst	0x00000100 ; undefined
     d04:	00000000 	.inst	0x00000000 ; undefined
     d08:	00000110 	.inst	0x00000110 ; undefined
     d0c:	00000000 	.inst	0x00000000 ; undefined
     d10:	00520001 	.inst	0x00520001 ; undefined
	...
     d20:	ec000000 	.inst	0xec000000 ; undefined
     d24:	00000000 	.inst	0x00000000 ; undefined
     d28:	f4000000 	.inst	0xf4000000 ; undefined
     d2c:	00000000 	.inst	0x00000000 ; undefined
     d30:	02000000 	.inst	0x02000000 ; undefined
     d34:	f49f3000 	.inst	0xf49f3000 ; undefined
     d38:	00000000 	.inst	0x00000000 ; undefined
     d3c:	10000000 	adr	x0, d3c <_start-0x7f2c4>
     d40:	00000001 	.inst	0x00000001 ; undefined
     d44:	01000000 	.inst	0x01000000 ; undefined
     d48:	00005100 	.inst	0x00005100 ; undefined
	...
     d58:	00cc0000 	.inst	0x00cc0000 ; undefined
     d5c:	00000000 	.inst	0x00000000 ; undefined
     d60:	00d40000 	.inst	0x00d40000 ; undefined
     d64:	00000000 	.inst	0x00000000 ; undefined
     d68:	00020000 	.inst	0x00020000 ; undefined
     d6c:	00d49f30 	.inst	0x00d49f30 ; undefined
     d70:	00000000 	.inst	0x00000000 ; undefined
     d74:	00ec0000 	.inst	0x00ec0000 ; undefined
     d78:	00000000 	.inst	0x00000000 ; undefined
     d7c:	00010000 	.inst	0x00010000 ; undefined
     d80:	00000053 	.inst	0x00000053 ; undefined
	...
     d90:	0000b000 	.inst	0x0000b000 ; undefined
     d94:	00000000 	.inst	0x00000000 ; undefined
     d98:	0000b800 	.inst	0x0000b800 ; undefined
     d9c:	00000000 	.inst	0x00000000 ; undefined
     da0:	30000200 	adr	x0, de1 <_start-0x7f21f>
     da4:	0000b89f 	.inst	0x0000b89f ; undefined
     da8:	00000000 	.inst	0x00000000 ; undefined
     dac:	0000cc00 	.inst	0x0000cc00 ; undefined
     db0:	00000000 	.inst	0x00000000 ; undefined
     db4:	53000100 	ubfx	w0, w8, #0, #1
	...
     dc8:	00000074 	.inst	0x00000074 ; undefined
     dcc:	00000000 	.inst	0x00000000 ; undefined
     dd0:	0000007c 	.inst	0x0000007c ; undefined
     dd4:	00000000 	.inst	0x00000000 ; undefined
     dd8:	7c500001 	ldur	h1, [x0, #-256]
     ddc:	00000000 	.inst	0x00000000 ; undefined
     de0:	b0000000 	adrp	x0, 1000 <_start-0x7f000>
     de4:	00000000 	.inst	0x00000000 ; undefined
     de8:	01000000 	.inst	0x01000000 ; undefined
     dec:	00005400 	.inst	0x00005400 ; undefined
	...
     dfc:	00780000 	.inst	0x00780000 ; undefined
     e00:	00000000 	.inst	0x00000000 ; undefined
     e04:	007c0000 	.inst	0x007c0000 ; undefined
     e08:	00000000 	.inst	0x00000000 ; undefined
     e0c:	00020000 	.inst	0x00020000 ; undefined
     e10:	007c9f30 	.inst	0x007c9f30 ; undefined
     e14:	00000000 	.inst	0x00000000 ; undefined
     e18:	00940000 	.inst	0x00940000 ; undefined
     e1c:	00000000 	.inst	0x00000000 ; undefined
     e20:	00010000 	.inst	0x00010000 ; undefined
     e24:	00009450 	.inst	0x00009450 ; undefined
     e28:	00000000 	.inst	0x00000000 ; undefined
     e2c:	0000a000 	.inst	0x0000a000 ; undefined
     e30:	00000000 	.inst	0x00000000 ; undefined
     e34:	70000500 	adr	x0, ed7 <_start-0x7f129>
     e38:	9f1e3a00 	.inst	0x9f1e3a00 ; undefined
     e3c:	000000a0 	.inst	0x000000a0 ; undefined
     e40:	00000000 	.inst	0x00000000 ; undefined
     e44:	000000b0 	.inst	0x000000b0 ; undefined
     e48:	00000000 	.inst	0x00000000 ; undefined
     e4c:	00500001 	.inst	0x00500001 ; undefined
	...
     e64:	04000000 	add	z0.b, p0/m, z0.b, z0.b
     e68:	00000000 	.inst	0x00000000 ; undefined
     e6c:	01000000 	.inst	0x01000000 ; undefined
     e70:	00045000 	.inst	0x00045000 ; undefined
     e74:	00000000 	.inst	0x00000000 ; undefined
     e78:	00740000 	.inst	0x00740000 ; undefined
     e7c:	00000000 	.inst	0x00000000 ; undefined
     e80:	00010000 	.inst	0x00010000 ; undefined
     e84:	00000054 	.inst	0x00000054 ; undefined
	...
     e9c:	00000c00 	.inst	0x00000c00 ; undefined
     ea0:	00000000 	.inst	0x00000000 ; undefined
     ea4:	30000200 	adr	x0, ee5 <_start-0x7f11b>
     ea8:	00000c9f 	.inst	0x00000c9f ; undefined
     eac:	00000000 	.inst	0x00000000 ; undefined
     eb0:	00002000 	.inst	0x00002000 ; undefined
     eb4:	00000000 	.inst	0x00000000 ; undefined
     eb8:	50000100 	adr	x0, eda <_start-0x7f126>
     ebc:	00000024 	.inst	0x00000024 ; undefined
     ec0:	00000000 	.inst	0x00000000 ; undefined
     ec4:	00000048 	.inst	0x00000048 ; undefined
     ec8:	00000000 	.inst	0x00000000 ; undefined
     ecc:	4c500001 	.inst	0x4c500001 ; undefined
     ed0:	00000000 	.inst	0x00000000 ; undefined
     ed4:	64000000 	.inst	0x64000000 ; undefined
     ed8:	00000000 	.inst	0x00000000 ; undefined
     edc:	01000000 	.inst	0x01000000 ; undefined
     ee0:	00685000 	.inst	0x00685000 ; undefined
     ee4:	00000000 	.inst	0x00000000 ; undefined
     ee8:	00740000 	.inst	0x00740000 ; undefined
     eec:	00000000 	.inst	0x00000000 ; undefined
     ef0:	00010000 	.inst	0x00010000 ; undefined
     ef4:	00000050 	.inst	0x00000050 ; undefined
	...
     f04:	00053c00 	.inst	0x00053c00 ; undefined
     f08:	00000000 	.inst	0x00000000 ; undefined
     f0c:	0005d000 	.inst	0x0005d000 ; undefined
     f10:	00000000 	.inst	0x00000000 ; undefined
     f14:	50000100 	adr	x0, f36 <_start-0x7f0ca>
     f18:	000005d0 	.inst	0x000005d0 ; undefined
     f1c:	00000000 	.inst	0x00000000 ; undefined
     f20:	000005d3 	.inst	0x000005d3 ; undefined
     f24:	00000000 	.inst	0x00000000 ; undefined
     f28:	d3520001 	ubfiz	x1, x0, #46, #1
     f2c:	00000005 	.inst	0x00000005 ; undefined
     f30:	0c000000 	st4	{v0.8b-v3.8b}, [x0]
     f34:	00000006 	.inst	0x00000006 ; undefined
     f38:	04000000 	add	z0.b, p0/m, z0.b, z0.b
     f3c:	5001f300 	adr	x0, 4d9e <_start-0x7b262>
     f40:	0000009f 	.inst	0x0000009f ; undefined
	...
     f50:	00058c00 	.inst	0x00058c00 ; undefined
     f54:	00000000 	.inst	0x00000000 ; undefined
     f58:	0005d800 	.inst	0x0005d800 ; undefined
     f5c:	00000000 	.inst	0x00000000 ; undefined
     f60:	30000200 	adr	x0, fa1 <_start-0x7f05f>
     f64:	0005d89f 	.inst	0x0005d89f ; undefined
     f68:	00000000 	.inst	0x00000000 ; undefined
     f6c:	0005e000 	.inst	0x0005e000 ; undefined
     f70:	00000000 	.inst	0x00000000 ; undefined
     f74:	50000100 	adr	x0, f96 <_start-0x7f06a>
     f78:	000005e0 	.inst	0x000005e0 ; undefined
     f7c:	00000000 	.inst	0x00000000 ; undefined
     f80:	00000600 	.inst	0x00000600 ; undefined
     f84:	00000000 	.inst	0x00000000 ; undefined
     f88:	00640001 	.inst	0x00640001 ; undefined
	...
     f98:	d8000000 	prfm	pldl1keep, f98 <_start-0x7f068>
     f9c:	00000005 	.inst	0x00000005 ; undefined
     fa0:	e0000000 	.inst	0xe0000000 ; undefined
     fa4:	00000005 	.inst	0x00000005 ; undefined
     fa8:	02000000 	.inst	0x02000000 ; undefined
     fac:	e09f3000 	.inst	0xe09f3000 ; undefined
     fb0:	00000005 	.inst	0x00000005 ; undefined
     fb4:	00000000 	.inst	0x00000000 ; undefined
     fb8:	00000006 	.inst	0x00000006 ; undefined
     fbc:	01000000 	.inst	0x01000000 ; undefined
     fc0:	06006300 	.inst	0x06006300 ; undefined
     fc4:	00000000 	.inst	0x00000000 ; undefined
     fc8:	060c0000 	.inst	0x060c0000 ; undefined
     fcc:	00000000 	.inst	0x00000000 ; undefined
     fd0:	00010000 	.inst	0x00010000 ; undefined
     fd4:	00000050 	.inst	0x00000050 ; undefined
	...
     fe4:	0004bc00 	.inst	0x0004bc00 ; undefined
     fe8:	00000000 	.inst	0x00000000 ; undefined
     fec:	00053300 	.inst	0x00053300 ; undefined
     ff0:	00000000 	.inst	0x00000000 ; undefined
     ff4:	50000100 	adr	x0, 1016 <_start-0x7efea>
     ff8:	00000533 	.inst	0x00000533 ; undefined
     ffc:	00000000 	.inst	0x00000000 ; undefined
    1000:	0000053c 	.inst	0x0000053c ; undefined
    1004:	00000000 	.inst	0x00000000 ; undefined
    1008:	01f30004 	.inst	0x01f30004 ; undefined
    100c:	00009f50 	.inst	0x00009f50 ; undefined
	...
    101c:	04bc0000 	add	z0.s, z0.s, z28.s
    1020:	00000000 	.inst	0x00000000 ; undefined
    1024:	05330000 	ext	z0.b, z0.b, z0.b, #152
    1028:	00000000 	.inst	0x00000000 ; undefined
    102c:	00010000 	.inst	0x00010000 ; undefined
    1030:	00053351 	.inst	0x00053351 ; undefined
    1034:	00000000 	.inst	0x00000000 ; undefined
    1038:	00053c00 	.inst	0x00053c00 ; undefined
    103c:	00000000 	.inst	0x00000000 ; undefined
    1040:	f3000400 	.inst	0xf3000400 ; undefined
    1044:	009f5101 	.inst	0x009f5101 ; undefined
	...
    1054:	bc000000 	stur	s0, [x0]
    1058:	00000004 	.inst	0x00000004 ; undefined
    105c:	33000000 	bfxil	w0, w0, #0, #1
    1060:	00000005 	.inst	0x00000005 ; undefined
    1064:	01000000 	.inst	0x01000000 ; undefined
    1068:	05335200 	.inst	0x05335200 ; undefined
    106c:	00000000 	.inst	0x00000000 ; undefined
    1070:	053c0000 	ext	z0.b, z0.b, z0.b, #224
    1074:	00000000 	.inst	0x00000000 ; undefined
    1078:	00040000 	.inst	0x00040000 ; undefined
    107c:	9f5201f3 	.inst	0x9f5201f3 ; undefined
	...
    1090:	000004f8 	.inst	0x000004f8 ; undefined
    1094:	00000000 	.inst	0x00000000 ; undefined
    1098:	00000534 	.inst	0x00000534 ; undefined
    109c:	00000000 	.inst	0x00000000 ; undefined
    10a0:	9f300002 	.inst	0x9f300002 ; undefined
    10a4:	00000534 	.inst	0x00000534 ; undefined
    10a8:	00000000 	.inst	0x00000000 ; undefined
    10ac:	0000053c 	.inst	0x0000053c ; undefined
    10b0:	00000000 	.inst	0x00000000 ; undefined
    10b4:	00500001 	.inst	0x00500001 ; undefined
	...
    10c4:	88000000 	stxr	w0, w0, [x0]
    10c8:	00000001 	.inst	0x00000001 ; undefined
    10cc:	b0000000 	adrp	x0, 2000 <_start-0x7e000>
    10d0:	00000001 	.inst	0x00000001 ; undefined
    10d4:	01000000 	.inst	0x01000000 ; undefined
    10d8:	01b05000 	.inst	0x01b05000 ; undefined
    10dc:	00000000 	.inst	0x00000000 ; undefined
    10e0:	04b00000 	add	z0.s, z0.s, z16.s
    10e4:	00000000 	.inst	0x00000000 ; undefined
    10e8:	00010000 	.inst	0x00010000 ; undefined
    10ec:	0004b066 	.inst	0x0004b066 ; undefined
    10f0:	00000000 	.inst	0x00000000 ; undefined
    10f4:	0004bc00 	.inst	0x0004bc00 ; undefined
    10f8:	00000000 	.inst	0x00000000 ; undefined
    10fc:	f3000400 	.inst	0xf3000400 ; undefined
    1100:	009f5001 	.inst	0x009f5001 ; undefined
	...
    1110:	88000000 	stxr	w0, w0, [x0]
    1114:	00000001 	.inst	0x00000001 ; undefined
    1118:	b0000000 	adrp	x0, 2000 <_start-0x7e000>
    111c:	00000001 	.inst	0x00000001 ; undefined
    1120:	01000000 	.inst	0x01000000 ; undefined
    1124:	01b05100 	.inst	0x01b05100 ; undefined
    1128:	00000000 	.inst	0x00000000 ; undefined
    112c:	04b00000 	add	z0.s, z0.s, z16.s
    1130:	00000000 	.inst	0x00000000 ; undefined
    1134:	00010000 	.inst	0x00010000 ; undefined
    1138:	0004b065 	.inst	0x0004b065 ; undefined
    113c:	00000000 	.inst	0x00000000 ; undefined
    1140:	0004bc00 	.inst	0x0004bc00 ; undefined
    1144:	00000000 	.inst	0x00000000 ; undefined
    1148:	f3000400 	.inst	0xf3000400 ; undefined
    114c:	009f5101 	.inst	0x009f5101 ; undefined
	...
    115c:	88000000 	stxr	w0, w0, [x0]
    1160:	00000001 	.inst	0x00000001 ; undefined
    1164:	b0000000 	adrp	x0, 2000 <_start-0x7e000>
    1168:	00000001 	.inst	0x00000001 ; undefined
    116c:	01000000 	.inst	0x01000000 ; undefined
    1170:	01b05200 	.inst	0x01b05200 ; undefined
    1174:	00000000 	.inst	0x00000000 ; undefined
    1178:	01e00000 	.inst	0x01e00000 ; undefined
    117c:	00000000 	.inst	0x00000000 ; undefined
    1180:	00010000 	.inst	0x00010000 ; undefined
    1184:	0001e064 	.inst	0x0001e064 ; undefined
    1188:	00000000 	.inst	0x00000000 ; undefined
    118c:	00025800 	.inst	0x00025800 ; undefined
    1190:	00000000 	.inst	0x00000000 ; undefined
    1194:	67000100 	.inst	0x67000100 ; undefined
    1198:	00000258 	.inst	0x00000258 ; undefined
    119c:	00000000 	.inst	0x00000000 ; undefined
    11a0:	00000260 	.inst	0x00000260 ; undefined
    11a4:	00000000 	.inst	0x00000000 ; undefined
    11a8:	60640001 	.inst	0x60640001 ; undefined
    11ac:	00000002 	.inst	0x00000002 ; undefined
    11b0:	c0000000 	.inst	0xc0000000 ; undefined
    11b4:	00000002 	.inst	0x00000002 ; undefined
    11b8:	01000000 	.inst	0x01000000 ; undefined
    11bc:	02c06700 	.inst	0x02c06700 ; undefined
    11c0:	00000000 	.inst	0x00000000 ; undefined
    11c4:	02c40000 	.inst	0x02c40000 ; undefined
    11c8:	00000000 	.inst	0x00000000 ; undefined
    11cc:	00010000 	.inst	0x00010000 ; undefined
    11d0:	0002c464 	.inst	0x0002c464 ; undefined
    11d4:	00000000 	.inst	0x00000000 ; undefined
    11d8:	0002f800 	.inst	0x0002f800 ; undefined
    11dc:	00000000 	.inst	0x00000000 ; undefined
    11e0:	67000100 	.inst	0x67000100 ; undefined
    11e4:	000002f8 	.inst	0x000002f8 ; undefined
    11e8:	00000000 	.inst	0x00000000 ; undefined
    11ec:	00000300 	.inst	0x00000300 ; undefined
    11f0:	00000000 	.inst	0x00000000 ; undefined
    11f4:	00640001 	.inst	0x00640001 ; undefined
    11f8:	00000003 	.inst	0x00000003 ; undefined
    11fc:	64000000 	.inst	0x64000000 ; undefined
    1200:	00000003 	.inst	0x00000003 ; undefined
    1204:	01000000 	.inst	0x01000000 ; undefined
    1208:	03646700 	.inst	0x03646700 ; undefined
    120c:	00000000 	.inst	0x00000000 ; undefined
    1210:	03680000 	.inst	0x03680000 ; undefined
    1214:	00000000 	.inst	0x00000000 ; undefined
    1218:	00010000 	.inst	0x00010000 ; undefined
    121c:	00036864 	.inst	0x00036864 ; undefined
    1220:	00000000 	.inst	0x00000000 ; undefined
    1224:	0003dc00 	.inst	0x0003dc00 ; undefined
    1228:	00000000 	.inst	0x00000000 ; undefined
    122c:	67000100 	.inst	0x67000100 ; undefined
    1230:	000003dc 	.inst	0x000003dc ; undefined
    1234:	00000000 	.inst	0x00000000 ; undefined
    1238:	000003e0 	.inst	0x000003e0 ; undefined
    123c:	00000000 	.inst	0x00000000 ; undefined
    1240:	e0640001 	.inst	0xe0640001 ; undefined
    1244:	00000003 	.inst	0x00000003 ; undefined
    1248:	70000000 	adr	x0, 124b <_start-0x7edb5>
    124c:	00000004 	.inst	0x00000004 ; undefined
    1250:	01000000 	.inst	0x01000000 ; undefined
    1254:	04706700 	.inst	0x04706700 ; undefined
    1258:	00000000 	.inst	0x00000000 ; undefined
    125c:	04740000 	add	z0.h, z0.h, z20.h
    1260:	00000000 	.inst	0x00000000 ; undefined
    1264:	00010000 	.inst	0x00010000 ; undefined
    1268:	00047464 	.inst	0x00047464 ; undefined
    126c:	00000000 	.inst	0x00000000 ; undefined
    1270:	0004a000 	.inst	0x0004a000 ; undefined
    1274:	00000000 	.inst	0x00000000 ; undefined
    1278:	67000100 	.inst	0x67000100 ; undefined
    127c:	000004a0 	.inst	0x000004a0 ; undefined
    1280:	00000000 	.inst	0x00000000 ; undefined
    1284:	000004ac 	.inst	0x000004ac ; undefined
    1288:	00000000 	.inst	0x00000000 ; undefined
    128c:	00640001 	.inst	0x00640001 ; undefined
	...
    129c:	ac000000 	stnp	q0, q0, [x0]
    12a0:	00000001 	.inst	0x00000001 ; undefined
    12a4:	b0000000 	adrp	x0, 2000 <_start-0x7e000>
    12a8:	00000001 	.inst	0x00000001 ; undefined
    12ac:	02000000 	.inst	0x02000000 ; undefined
    12b0:	b09f3000 	adrp	x0, ffffffff3e602000 <__bss_end__+0xffffffff3e5810c0>
    12b4:	00000001 	.inst	0x00000001 ; undefined
    12b8:	bc000000 	stur	s0, [x0]
    12bc:	00000002 	.inst	0x00000002 ; undefined
    12c0:	01000000 	.inst	0x01000000 ; undefined
    12c4:	02bc6300 	.inst	0x02bc6300 ; undefined
    12c8:	00000000 	.inst	0x00000000 ; undefined
    12cc:	02c40000 	.inst	0x02c40000 ; undefined
    12d0:	00000000 	.inst	0x00000000 ; undefined
    12d4:	00010000 	.inst	0x00010000 ; undefined
    12d8:	0002c450 	.inst	0x0002c450 ; undefined
    12dc:	00000000 	.inst	0x00000000 ; undefined
    12e0:	00031c00 	.inst	0x00031c00 ; undefined
    12e4:	00000000 	.inst	0x00000000 ; undefined
    12e8:	63000100 	.inst	0x63000100 ; undefined
    12ec:	0000031c 	.inst	0x0000031c ; undefined
    12f0:	00000000 	.inst	0x00000000 ; undefined
    12f4:	00000320 	.inst	0x00000320 ; undefined
    12f8:	00000000 	.inst	0x00000000 ; undefined
    12fc:	20500001 	.inst	0x20500001 ; undefined
    1300:	00000003 	.inst	0x00000003 ; undefined
    1304:	28000000 	stnp	w0, w0, [x0]
    1308:	00000004 	.inst	0x00000004 ; undefined
    130c:	01000000 	.inst	0x01000000 ; undefined
    1310:	04286300 	.inst	0x04286300 ; undefined
    1314:	00000000 	.inst	0x00000000 ; undefined
    1318:	042c0000 	add	z0.b, z0.b, z12.b
    131c:	00000000 	.inst	0x00000000 ; undefined
    1320:	00010000 	.inst	0x00010000 ; undefined
    1324:	00042c50 	.inst	0x00042c50 ; undefined
    1328:	00000000 	.inst	0x00000000 ; undefined
    132c:	0004ac00 	.inst	0x0004ac00 ; undefined
    1330:	00000000 	.inst	0x00000000 ; undefined
    1334:	63000100 	.inst	0x63000100 ; undefined
    1338:	000004ac 	.inst	0x000004ac ; undefined
    133c:	00000000 	.inst	0x00000000 ; undefined
    1340:	000004bc 	.inst	0x000004bc ; undefined
    1344:	00000000 	.inst	0x00000000 ; undefined
    1348:	00500001 	.inst	0x00500001 ; undefined
	...
    1358:	ac000000 	stnp	q0, q0, [x0]
    135c:	00000001 	.inst	0x00000001 ; undefined
    1360:	b0000000 	adrp	x0, 2000 <_start-0x7e000>
    1364:	00000001 	.inst	0x00000001 ; undefined
    1368:	02000000 	.inst	0x02000000 ; undefined
    136c:	0c9f3000 	.inst	0x0c9f3000 ; undefined
    1370:	00000002 	.inst	0x00000002 ; undefined
    1374:	10000000 	adr	x0, 1374 <_start-0x7ec8c>
    1378:	00000002 	.inst	0x00000002 ; undefined
    137c:	01000000 	.inst	0x01000000 ; undefined
    1380:	02105000 	.inst	0x02105000 ; undefined
    1384:	00000000 	.inst	0x00000000 ; undefined
    1388:	02300000 	.inst	0x02300000 ; undefined
    138c:	00000000 	.inst	0x00000000 ; undefined
    1390:	00010000 	.inst	0x00010000 ; undefined
    1394:	00030064 	.inst	0x00030064 ; undefined
    1398:	00000000 	.inst	0x00000000 ; undefined
    139c:	00035800 	.inst	0x00035800 ; undefined
    13a0:	00000000 	.inst	0x00000000 ; undefined
    13a4:	64000100 	.inst	0x64000100 ; undefined
    13a8:	00000368 	.inst	0x00000368 ; undefined
    13ac:	00000000 	.inst	0x00000000 ; undefined
    13b0:	000003d0 	.inst	0x000003d0 ; undefined
    13b4:	00000000 	.inst	0x00000000 ; undefined
    13b8:	e0640001 	.inst	0xe0640001 ; undefined
    13bc:	00000003 	.inst	0x00000003 ; undefined
    13c0:	64000000 	.inst	0x64000000 ; undefined
    13c4:	00000004 	.inst	0x00000004 ; undefined
    13c8:	01000000 	.inst	0x01000000 ; undefined
    13cc:	04746400 	.inst	0x04746400 ; undefined
    13d0:	00000000 	.inst	0x00000000 ; undefined
    13d4:	04a00000 	add	z0.s, z0.s, z0.s
    13d8:	00000000 	.inst	0x00000000 ; undefined
    13dc:	00010000 	.inst	0x00010000 ; undefined
    13e0:	00000064 	.inst	0x00000064 ; undefined
	...
    13f0:	00035000 	.inst	0x00035000 ; undefined
    13f4:	00000000 	.inst	0x00000000 ; undefined
    13f8:	00036800 	.inst	0x00036800 ; undefined
    13fc:	00000000 	.inst	0x00000000 ; undefined
    1400:	50000100 	adr	x0, 1422 <_start-0x7ebde>
    1404:	000003c8 	.inst	0x000003c8 ; undefined
    1408:	00000000 	.inst	0x00000000 ; undefined
    140c:	000003e0 	.inst	0x000003e0 ; undefined
    1410:	00000000 	.inst	0x00000000 ; undefined
    1414:	5c500001 	ldr	d1, a1414 <__bss_end__+0x204d4>
    1418:	00000004 	.inst	0x00000004 ; undefined
    141c:	74000000 	.inst	0x74000000 ; undefined
    1420:	00000004 	.inst	0x00000004 ; undefined
    1424:	01000000 	.inst	0x01000000 ; undefined
    1428:	00005000 	.inst	0x00005000 ; undefined
	...
    1438:	01480000 	.inst	0x01480000 ; undefined
    143c:	00000000 	.inst	0x00000000 ; undefined
    1440:	015b0000 	.inst	0x015b0000 ; undefined
    1444:	00000000 	.inst	0x00000000 ; undefined
    1448:	00010000 	.inst	0x00010000 ; undefined
    144c:	00015b50 	.inst	0x00015b50 ; undefined
    1450:	00000000 	.inst	0x00000000 ; undefined
    1454:	00016400 	.inst	0x00016400 ; undefined
    1458:	00000000 	.inst	0x00000000 ; undefined
    145c:	f3000400 	.inst	0xf3000400 ; undefined
    1460:	649f5001 	fcmla	z1.s, p4/m, z0.s, z31.s, #180
    1464:	00000001 	.inst	0x00000001 ; undefined
    1468:	6c000000 	stnp	d0, d0, [x0]
    146c:	00000001 	.inst	0x00000001 ; undefined
    1470:	01000000 	.inst	0x01000000 ; undefined
    1474:	016c5000 	.inst	0x016c5000 ; undefined
    1478:	00000000 	.inst	0x00000000 ; undefined
    147c:	017f0000 	.inst	0x017f0000 ; undefined
    1480:	00000000 	.inst	0x00000000 ; undefined
    1484:	00030000 	.inst	0x00030000 ; undefined
    1488:	7f9f7f70 	.inst	0x7f9f7f70 ; undefined
    148c:	00000001 	.inst	0x00000001 ; undefined
    1490:	88000000 	stxr	w0, w0, [x0]
    1494:	00000001 	.inst	0x00000001 ; undefined
    1498:	04000000 	add	z0.b, p0/m, z0.b, z0.b
    149c:	5001f300 	adr	x0, 52fe <_start-0x7ad02>
    14a0:	0000009f 	.inst	0x0000009f ; undefined
	...
    14b0:	00014800 	.inst	0x00014800 ; undefined
    14b4:	00000000 	.inst	0x00000000 ; undefined
    14b8:	00015b00 	.inst	0x00015b00 ; undefined
    14bc:	00000000 	.inst	0x00000000 ; undefined
    14c0:	51000100 	sub	w0, w8, #0x0
    14c4:	0000015b 	.inst	0x0000015b ; undefined
    14c8:	00000000 	.inst	0x00000000 ; undefined
    14cc:	00000164 	.inst	0x00000164 ; undefined
    14d0:	00000000 	.inst	0x00000000 ; undefined
    14d4:	01f30004 	.inst	0x01f30004 ; undefined
    14d8:	01649f51 	.inst	0x01649f51 ; undefined
    14dc:	00000000 	.inst	0x00000000 ; undefined
    14e0:	017c0000 	.inst	0x017c0000 ; undefined
    14e4:	00000000 	.inst	0x00000000 ; undefined
    14e8:	00010000 	.inst	0x00010000 ; undefined
    14ec:	00017c51 	.inst	0x00017c51 ; undefined
    14f0:	00000000 	.inst	0x00000000 ; undefined
    14f4:	00017f00 	.inst	0x00017f00 ; undefined
    14f8:	00000000 	.inst	0x00000000 ; undefined
    14fc:	71000300 	subs	w0, w24, #0x0
    1500:	017f9f01 	.inst	0x017f9f01 ; undefined
    1504:	00000000 	.inst	0x00000000 ; undefined
    1508:	01880000 	.inst	0x01880000 ; undefined
    150c:	00000000 	.inst	0x00000000 ; undefined
    1510:	00040000 	.inst	0x00040000 ; undefined
    1514:	9f5101f3 	.inst	0x9f5101f3 ; undefined
	...
    1528:	00000148 	.inst	0x00000148 ; undefined
    152c:	00000000 	.inst	0x00000000 ; undefined
    1530:	0000015b 	.inst	0x0000015b ; undefined
    1534:	00000000 	.inst	0x00000000 ; undefined
    1538:	5b520001 	.inst	0x5b520001 ; undefined
    153c:	00000001 	.inst	0x00000001 ; undefined
    1540:	64000000 	.inst	0x64000000 ; undefined
    1544:	00000001 	.inst	0x00000001 ; undefined
    1548:	04000000 	add	z0.b, p0/m, z0.b, z0.b
    154c:	5201f300 	eor	w0, w24, #0xaaaaaaaa
    1550:	0001649f 	.inst	0x0001649f ; undefined
    1554:	00000000 	.inst	0x00000000 ; undefined
    1558:	00017000 	.inst	0x00017000 ; undefined
    155c:	00000000 	.inst	0x00000000 ; undefined
    1560:	52000100 	eor	w0, w8, #0x1
    1564:	00000170 	.inst	0x00000170 ; undefined
    1568:	00000000 	.inst	0x00000000 ; undefined
    156c:	0000017f 	.inst	0x0000017f ; undefined
    1570:	00000000 	.inst	0x00000000 ; undefined
    1574:	00720004 	.inst	0x00720004 ; undefined
    1578:	017f9f1f 	.inst	0x017f9f1f ; undefined
    157c:	00000000 	.inst	0x00000000 ; undefined
    1580:	01880000 	.inst	0x01880000 ; undefined
    1584:	00000000 	.inst	0x00000000 ; undefined
    1588:	00040000 	.inst	0x00040000 ; undefined
    158c:	9f5201f3 	.inst	0x9f5201f3 ; undefined
	...
    15a0:	00000148 	.inst	0x00000148 ; undefined
    15a4:	00000000 	.inst	0x00000000 ; undefined
    15a8:	0000015b 	.inst	0x0000015b ; undefined
    15ac:	00000000 	.inst	0x00000000 ; undefined
    15b0:	5b530001 	.inst	0x5b530001 ; undefined
    15b4:	00000001 	.inst	0x00000001 ; undefined
    15b8:	64000000 	.inst	0x64000000 ; undefined
    15bc:	00000001 	.inst	0x00000001 ; undefined
    15c0:	04000000 	add	z0.b, p0/m, z0.b, z0.b
    15c4:	5301f300 	.inst	0x5301f300 ; undefined
    15c8:	0001649f 	.inst	0x0001649f ; undefined
    15cc:	00000000 	.inst	0x00000000 ; undefined
    15d0:	00017f00 	.inst	0x00017f00 ; undefined
    15d4:	00000000 	.inst	0x00000000 ; undefined
    15d8:	53000100 	ubfx	w0, w8, #0, #1
    15dc:	0000017f 	.inst	0x0000017f ; undefined
    15e0:	00000000 	.inst	0x00000000 ; undefined
    15e4:	00000188 	.inst	0x00000188 ; undefined
    15e8:	00000000 	.inst	0x00000000 ; undefined
    15ec:	01f30004 	.inst	0x01f30004 ; undefined
    15f0:	00009f53 	.inst	0x00009f53 ; undefined
	...
    1600:	01480000 	.inst	0x01480000 ; undefined
    1604:	00000000 	.inst	0x00000000 ; undefined
    1608:	015b0000 	.inst	0x015b0000 ; undefined
    160c:	00000000 	.inst	0x00000000 ; undefined
    1610:	00010000 	.inst	0x00010000 ; undefined
    1614:	00015b54 	.inst	0x00015b54 ; undefined
    1618:	00000000 	.inst	0x00000000 ; undefined
    161c:	00016400 	.inst	0x00016400 ; undefined
    1620:	00000000 	.inst	0x00000000 ; undefined
    1624:	f3000400 	.inst	0xf3000400 ; undefined
    1628:	649f5401 	fcmla	z1.s, p5/m, z0.s, z31.s, #180
    162c:	00000001 	.inst	0x00000001 ; undefined
    1630:	74000000 	.inst	0x74000000 ; undefined
    1634:	00000001 	.inst	0x00000001 ; undefined
    1638:	01000000 	.inst	0x01000000 ; undefined
    163c:	01745400 	.inst	0x01745400 ; undefined
    1640:	00000000 	.inst	0x00000000 ; undefined
    1644:	017f0000 	.inst	0x017f0000 ; undefined
    1648:	00000000 	.inst	0x00000000 ; undefined
    164c:	00030000 	.inst	0x00030000 ; undefined
    1650:	7f9f0174 	.inst	0x7f9f0174 ; undefined
    1654:	00000001 	.inst	0x00000001 ; undefined
    1658:	88000000 	stxr	w0, w0, [x0]
    165c:	00000001 	.inst	0x00000001 ; undefined
    1660:	04000000 	add	z0.b, p0/m, z0.b, z0.b
    1664:	5401f300 	b.eq	54c4 <_start-0x7ab3c>  // b.none
    1668:	0000009f 	.inst	0x0000009f ; undefined
	...
    1678:	00006800 	.inst	0x00006800 ; undefined
    167c:	00000000 	.inst	0x00000000 ; undefined
    1680:	00009800 	.inst	0x00009800 ; undefined
    1684:	00000000 	.inst	0x00000000 ; undefined
    1688:	50000100 	adr	x0, 16aa <_start-0x7e956>
    168c:	00000098 	.inst	0x00000098 ; undefined
    1690:	00000000 	.inst	0x00000000 ; undefined
    1694:	00000134 	.inst	0x00000134 ; undefined
    1698:	00000000 	.inst	0x00000000 ; undefined
    169c:	34650001 	cbz	w1, cb69c <__bss_end__+0x4a75c>
    16a0:	00000001 	.inst	0x00000001 ; undefined
    16a4:	40000000 	.inst	0x40000000 ; undefined
    16a8:	00000001 	.inst	0x00000001 ; undefined
    16ac:	04000000 	add	z0.b, p0/m, z0.b, z0.b
    16b0:	5001f300 	adr	x0, 5512 <_start-0x7aaee>
    16b4:	0001409f 	.inst	0x0001409f ; undefined
    16b8:	00000000 	.inst	0x00000000 ; undefined
    16bc:	00014800 	.inst	0x00014800 ; undefined
    16c0:	00000000 	.inst	0x00000000 ; undefined
    16c4:	65000100 	.inst	0x65000100 ; undefined
	...
    16d8:	00000068 	.inst	0x00000068 ; undefined
    16dc:	00000000 	.inst	0x00000000 ; undefined
    16e0:	00000094 	.inst	0x00000094 ; undefined
    16e4:	00000000 	.inst	0x00000000 ; undefined
    16e8:	94510001 	bl	14416ec <__bss_end__+0x13c07ac>
    16ec:	00000000 	.inst	0x00000000 ; undefined
    16f0:	34000000 	cbz	w0, 16f0 <_start-0x7e910>
    16f4:	00000001 	.inst	0x00000001 ; undefined
    16f8:	01000000 	.inst	0x01000000 ; undefined
    16fc:	01346600 	.inst	0x01346600 ; undefined
    1700:	00000000 	.inst	0x00000000 ; undefined
    1704:	01400000 	.inst	0x01400000 ; undefined
    1708:	00000000 	.inst	0x00000000 ; undefined
    170c:	00040000 	.inst	0x00040000 ; undefined
    1710:	9f5101f3 	.inst	0x9f5101f3 ; undefined
    1714:	00000140 	.inst	0x00000140 ; undefined
    1718:	00000000 	.inst	0x00000000 ; undefined
    171c:	00000148 	.inst	0x00000148 ; undefined
    1720:	00000000 	.inst	0x00000000 ; undefined
    1724:	00660001 	.inst	0x00660001 ; undefined
	...
    1734:	68000000 	.inst	0x68000000 ; undefined
    1738:	00000000 	.inst	0x00000000 ; undefined
    173c:	9b000000 	madd	x0, x0, x0, x0
    1740:	00000000 	.inst	0x00000000 ; undefined
    1744:	01000000 	.inst	0x01000000 ; undefined
    1748:	009b5200 	.inst	0x009b5200 ; undefined
    174c:	00000000 	.inst	0x00000000 ; undefined
    1750:	01300000 	.inst	0x01300000 ; undefined
    1754:	00000000 	.inst	0x00000000 ; undefined
    1758:	00010000 	.inst	0x00010000 ; undefined
    175c:	00014063 	.inst	0x00014063 ; undefined
    1760:	00000000 	.inst	0x00000000 ; undefined
    1764:	00014800 	.inst	0x00014800 ; undefined
    1768:	00000000 	.inst	0x00000000 ; undefined
    176c:	63000100 	.inst	0x63000100 ; undefined
	...
    1780:	00000068 	.inst	0x00000068 ; undefined
    1784:	00000000 	.inst	0x00000000 ; undefined
    1788:	0000009b 	.inst	0x0000009b ; undefined
    178c:	00000000 	.inst	0x00000000 ; undefined
    1790:	9b530001 	smulh	x1, x0, x19
    1794:	00000000 	.inst	0x00000000 ; undefined
    1798:	30000000 	adr	x0, 1799 <_start-0x7e867>
    179c:	00000001 	.inst	0x00000001 ; undefined
    17a0:	01000000 	.inst	0x01000000 ; undefined
    17a4:	01306400 	.inst	0x01306400 ; undefined
    17a8:	00000000 	.inst	0x00000000 ; undefined
    17ac:	01400000 	.inst	0x01400000 ; undefined
    17b0:	00000000 	.inst	0x00000000 ; undefined
    17b4:	00040000 	.inst	0x00040000 ; undefined
    17b8:	9f5301f3 	.inst	0x9f5301f3 ; undefined
    17bc:	00000140 	.inst	0x00000140 ; undefined
    17c0:	00000000 	.inst	0x00000000 ; undefined
    17c4:	00000148 	.inst	0x00000148 ; undefined
    17c8:	00000000 	.inst	0x00000000 ; undefined
    17cc:	00640001 	.inst	0x00640001 ; undefined
	...
    17dc:	68000000 	.inst	0x68000000 ; undefined
    17e0:	00000000 	.inst	0x00000000 ; undefined
    17e4:	9b000000 	madd	x0, x0, x0, x0
    17e8:	00000000 	.inst	0x00000000 ; undefined
    17ec:	01000000 	.inst	0x01000000 ; undefined
    17f0:	009b5400 	.inst	0x009b5400 ; undefined
    17f4:	00000000 	.inst	0x00000000 ; undefined
    17f8:	01380000 	.inst	0x01380000 ; undefined
    17fc:	00000000 	.inst	0x00000000 ; undefined
    1800:	00010000 	.inst	0x00010000 ; undefined
    1804:	00013867 	.inst	0x00013867 ; undefined
    1808:	00000000 	.inst	0x00000000 ; undefined
    180c:	00014000 	.inst	0x00014000 ; undefined
    1810:	00000000 	.inst	0x00000000 ; undefined
    1814:	f3000400 	.inst	0xf3000400 ; undefined
    1818:	409f5401 	.inst	0x409f5401 ; undefined
    181c:	00000001 	.inst	0x00000001 ; undefined
    1820:	48000000 	stxrh	w0, w0, [x0]
    1824:	00000001 	.inst	0x00000001 ; undefined
    1828:	01000000 	.inst	0x01000000 ; undefined
    182c:	00006700 	.inst	0x00006700 ; undefined
	...
    183c:	00900000 	.inst	0x00900000 ; undefined
    1840:	00000000 	.inst	0x00000000 ; undefined
    1844:	00b80000 	.inst	0x00b80000 ; undefined
    1848:	00000000 	.inst	0x00000000 ; undefined
    184c:	00020000 	.inst	0x00020000 ; undefined
    1850:	00b89f30 	.inst	0x00b89f30 ; undefined
    1854:	00000000 	.inst	0x00000000 ; undefined
    1858:	012c0000 	.inst	0x012c0000 ; undefined
    185c:	00000000 	.inst	0x00000000 ; undefined
    1860:	00010000 	.inst	0x00010000 ; undefined
    1864:	00014051 	.inst	0x00014051 ; undefined
    1868:	00000000 	.inst	0x00000000 ; undefined
    186c:	00014800 	.inst	0x00014800 ; undefined
    1870:	00000000 	.inst	0x00000000 ; undefined
    1874:	30000200 	adr	x0, 18b5 <_start-0x7e74b>
    1878:	0000009f 	.inst	0x0000009f ; undefined
	...
    1888:	0000ac00 	.inst	0x0000ac00 ; undefined
    188c:	00000000 	.inst	0x00000000 ; undefined
    1890:	00012c00 	.inst	0x00012c00 ; undefined
    1894:	00000000 	.inst	0x00000000 ; undefined
    1898:	50000100 	adr	x0, 18ba <_start-0x7e746>
	...
    18ac:	0000009c 	.inst	0x0000009c ; undefined
    18b0:	00000000 	.inst	0x00000000 ; undefined
    18b4:	000000ab 	.inst	0x000000ab ; undefined
    18b8:	00000000 	.inst	0x00000000 ; undefined
    18bc:	40500001 	.inst	0x40500001 ; undefined
    18c0:	00000001 	.inst	0x00000001 ; undefined
    18c4:	44000000 	.inst	0x44000000 ; undefined
    18c8:	00000001 	.inst	0x00000001 ; undefined
    18cc:	01000000 	.inst	0x01000000 ; undefined
    18d0:	00005000 	.inst	0x00005000 ; undefined
	...
    18e0:	00ac0000 	.inst	0x00ac0000 ; undefined
    18e4:	00000000 	.inst	0x00000000 ; undefined
    18e8:	00b80000 	.inst	0x00b80000 ; undefined
    18ec:	00000000 	.inst	0x00000000 ; undefined
    18f0:	00020000 	.inst	0x00020000 ; undefined
    18f4:	00b89f31 	.inst	0x00b89f31 ; undefined
    18f8:	00000000 	.inst	0x00000000 ; undefined
    18fc:	012c0000 	.inst	0x012c0000 ; undefined
    1900:	00000000 	.inst	0x00000000 ; undefined
    1904:	00010000 	.inst	0x00010000 ; undefined
    1908:	00000054 	.inst	0x00000054 ; undefined
	...
    1918:	00004000 	.inst	0x00004000 ; undefined
    191c:	00000000 	.inst	0x00000000 ; undefined
    1920:	00005000 	.inst	0x00005000 ; undefined
    1924:	00000000 	.inst	0x00000000 ; undefined
    1928:	50000100 	adr	x0, 194a <_start-0x7e6b6>
    192c:	00000050 	.inst	0x00000050 ; undefined
    1930:	00000000 	.inst	0x00000000 ; undefined
    1934:	0000005c 	.inst	0x0000005c ; undefined
    1938:	00000000 	.inst	0x00000000 ; undefined
    193c:	60500001 	.inst	0x60500001 ; undefined
    1940:	00000000 	.inst	0x00000000 ; undefined
    1944:	68000000 	.inst	0x68000000 ; undefined
    1948:	00000000 	.inst	0x00000000 ; undefined
    194c:	01000000 	.inst	0x01000000 ; undefined
    1950:	00005000 	.inst	0x00005000 ; undefined
	...
    1960:	00400000 	.inst	0x00400000 ; undefined
    1964:	00000000 	.inst	0x00000000 ; undefined
    1968:	00480000 	.inst	0x00480000 ; undefined
    196c:	00000000 	.inst	0x00000000 ; undefined
    1970:	00020000 	.inst	0x00020000 ; undefined
    1974:	00489f30 	.inst	0x00489f30 ; undefined
    1978:	00000000 	.inst	0x00000000 ; undefined
    197c:	00580000 	.inst	0x00580000 ; undefined
    1980:	00000000 	.inst	0x00000000 ; undefined
    1984:	00010000 	.inst	0x00010000 ; undefined
    1988:	00006052 	.inst	0x00006052 ; undefined
    198c:	00000000 	.inst	0x00000000 ; undefined
    1990:	00006400 	.inst	0x00006400 ; undefined
    1994:	00000000 	.inst	0x00000000 ; undefined
    1998:	52000100 	eor	w0, w8, #0x1
	...
    19b4:	00000028 	.inst	0x00000028 ; undefined
    19b8:	00000000 	.inst	0x00000000 ; undefined
    19bc:	28500001 	ldnp	w1, w0, [x0, #128]
    19c0:	00000000 	.inst	0x00000000 ; undefined
    19c4:	40000000 	.inst	0x40000000 ; undefined
    19c8:	00000000 	.inst	0x00000000 ; undefined
    19cc:	04000000 	add	z0.b, p0/m, z0.b, z0.b
    19d0:	5001f300 	adr	x0, 5832 <_start-0x7a7ce>
    19d4:	0000009f 	.inst	0x0000009f ; undefined
	...
    19e4:	00005800 	.inst	0x00005800 ; undefined
    19e8:	00000000 	.inst	0x00000000 ; undefined
    19ec:	00007800 	.inst	0x00007800 ; undefined
    19f0:	00000000 	.inst	0x00000000 ; undefined
    19f4:	50000100 	adr	x0, 1a16 <_start-0x7e5ea>
    19f8:	00000078 	.inst	0x00000078 ; undefined
    19fc:	00000000 	.inst	0x00000000 ; undefined
    1a00:	000000b4 	.inst	0x000000b4 ; undefined
    1a04:	00000000 	.inst	0x00000000 ; undefined
    1a08:	b4640001 	cbz	x1, c9a08 <__bss_end__+0x48ac8>
    1a0c:	00000000 	.inst	0x00000000 ; undefined
    1a10:	c0000000 	.inst	0xc0000000 ; undefined
    1a14:	00000000 	.inst	0x00000000 ; undefined
    1a18:	04000000 	add	z0.b, p0/m, z0.b, z0.b
    1a1c:	5001f300 	adr	x0, 587e <_start-0x7a782>
    1a20:	0000009f 	.inst	0x0000009f ; undefined
	...
    1a30:	00005800 	.inst	0x00005800 ; undefined
    1a34:	00000000 	.inst	0x00000000 ; undefined
    1a38:	00007800 	.inst	0x00007800 ; undefined
    1a3c:	00000000 	.inst	0x00000000 ; undefined
    1a40:	51000100 	sub	w0, w8, #0x0
    1a44:	00000078 	.inst	0x00000078 ; undefined
    1a48:	00000000 	.inst	0x00000000 ; undefined
    1a4c:	000000b8 	.inst	0x000000b8 ; undefined
    1a50:	00000000 	.inst	0x00000000 ; undefined
    1a54:	b8650001 	ldaddl	w5, w1, [x0]
    1a58:	00000000 	.inst	0x00000000 ; undefined
    1a5c:	c0000000 	.inst	0xc0000000 ; undefined
    1a60:	00000000 	.inst	0x00000000 ; undefined
    1a64:	04000000 	add	z0.b, p0/m, z0.b, z0.b
    1a68:	5101f300 	sub	w0, w24, #0x7c
    1a6c:	0000009f 	.inst	0x0000009f ; undefined
	...
    1a7c:	00007000 	.inst	0x00007000 ; undefined
    1a80:	00000000 	.inst	0x00000000 ; undefined
    1a84:	00007800 	.inst	0x00007800 ; undefined
    1a88:	00000000 	.inst	0x00000000 ; undefined
    1a8c:	30000200 	adr	x0, 1acd <_start-0x7e533>
    1a90:	0000789f 	.inst	0x0000789f ; undefined
    1a94:	00000000 	.inst	0x00000000 ; undefined
    1a98:	0000b400 	.inst	0x0000b400 ; undefined
    1a9c:	00000000 	.inst	0x00000000 ; undefined
    1aa0:	63000100 	.inst	0x63000100 ; undefined
	...
    1abc:	0000000c 	.inst	0x0000000c ; undefined
    1ac0:	00000000 	.inst	0x00000000 ; undefined
    1ac4:	0c500001 	.inst	0x0c500001 ; undefined
    1ac8:	00000000 	.inst	0x00000000 ; undefined
    1acc:	58000000 	ldr	x0, 1acc <_start-0x7e534>
    1ad0:	00000000 	.inst	0x00000000 ; undefined
    1ad4:	01000000 	.inst	0x01000000 ; undefined
    1ad8:	00005600 	.inst	0x00005600 ; undefined
	...
    1ae8:	00080000 	.inst	0x00080000 ; undefined
    1aec:	00000000 	.inst	0x00000000 ; undefined
    1af0:	00100000 	.inst	0x00100000 ; undefined
    1af4:	00000000 	.inst	0x00000000 ; undefined
    1af8:	00010000 	.inst	0x00010000 ; undefined
    1afc:	00000053 	.inst	0x00000053 ; undefined
	...
    1b0c:	00000400 	.inst	0x00000400 ; undefined
    1b10:	00000000 	.inst	0x00000000 ; undefined
    1b14:	00001000 	.inst	0x00001000 ; undefined
    1b18:	00000000 	.inst	0x00000000 ; undefined
    1b1c:	30000200 	adr	x0, 1b5d <_start-0x7e4a3>
    1b20:	0000109f 	.inst	0x0000109f ; undefined
    1b24:	00000000 	.inst	0x00000000 ; undefined
    1b28:	00005800 	.inst	0x00005800 ; undefined
    1b2c:	00000000 	.inst	0x00000000 ; undefined
    1b30:	50000100 	adr	x0, 1b52 <_start-0x7e4ae>
	...
    1b44:	00000094 	.inst	0x00000094 ; undefined
    1b48:	00000000 	.inst	0x00000000 ; undefined
    1b4c:	000000ac 	.inst	0x000000ac ; undefined
    1b50:	00000000 	.inst	0x00000000 ; undefined
    1b54:	ac500001 	ldnp	q1, q0, [x0, #512]
    1b58:	00000000 	.inst	0x00000000 ; undefined
    1b5c:	d0000000 	adrp	x0, 3000 <_start-0x7d000>
    1b60:	00000000 	.inst	0x00000000 ; undefined
    1b64:	01000000 	.inst	0x01000000 ; undefined
    1b68:	00d06300 	.inst	0x00d06300 ; undefined
    1b6c:	00000000 	.inst	0x00000000 ; undefined
    1b70:	00dc0000 	.inst	0x00dc0000 ; undefined
    1b74:	00000000 	.inst	0x00000000 ; undefined
    1b78:	00010000 	.inst	0x00010000 ; undefined
    1b7c:	0000dc50 	.inst	0x0000dc50 ; undefined
    1b80:	00000000 	.inst	0x00000000 ; undefined
    1b84:	0000e400 	.inst	0x0000e400 ; undefined
    1b88:	00000000 	.inst	0x00000000 ; undefined
    1b8c:	63000100 	.inst	0x63000100 ; undefined
	...
    1ba0:	000000bc 	.inst	0x000000bc ; undefined
    1ba4:	00000000 	.inst	0x00000000 ; undefined
    1ba8:	000000c0 	.inst	0x000000c0 ; undefined
    1bac:	00000000 	.inst	0x00000000 ; undefined
    1bb0:	c0500001 	.inst	0xc0500001 ; undefined
    1bb4:	00000000 	.inst	0x00000000 ; undefined
    1bb8:	d0000000 	adrp	x0, 3000 <_start-0x7d000>
    1bbc:	00000000 	.inst	0x00000000 ; undefined
    1bc0:	01000000 	.inst	0x01000000 ; undefined
    1bc4:	00006300 	.inst	0x00006300 ; undefined
	...
    1bd4:	00c80000 	.inst	0x00c80000 ; undefined
    1bd8:	00000000 	.inst	0x00000000 ; undefined
    1bdc:	00cb0000 	.inst	0x00cb0000 ; undefined
    1be0:	00000000 	.inst	0x00000000 ; undefined
    1be4:	00010000 	.inst	0x00010000 ; undefined
    1be8:	0000cb50 	.inst	0x0000cb50 ; undefined
    1bec:	00000000 	.inst	0x00000000 ; undefined
    1bf0:	0000d800 	.inst	0x0000d800 ; undefined
    1bf4:	00000000 	.inst	0x00000000 ; undefined
    1bf8:	64000100 	.inst	0x64000100 ; undefined
	...
    1c0c:	000000cc 	.inst	0x000000cc ; undefined
    1c10:	00000000 	.inst	0x00000000 ; undefined
    1c14:	000000d4 	.inst	0x000000d4 ; undefined
    1c18:	00000000 	.inst	0x00000000 ; undefined
    1c1c:	00500001 	.inst	0x00500001 ; undefined
	...
    1c2c:	88000000 	stxr	w0, w0, [x0]
    1c30:	00000000 	.inst	0x00000000 ; undefined
    1c34:	94000000 	bl	1c34 <_start-0x7e3cc>
    1c38:	00000000 	.inst	0x00000000 ; undefined
    1c3c:	01000000 	.inst	0x01000000 ; undefined
    1c40:	00945000 	.inst	0x00945000 ; undefined
    1c44:	00000000 	.inst	0x00000000 ; undefined
    1c48:	00a00000 	.inst	0x00a00000 ; undefined
    1c4c:	00000000 	.inst	0x00000000 ; undefined
    1c50:	00040000 	.inst	0x00040000 ; undefined
    1c54:	9f5001f3 	.inst	0x9f5001f3 ; undefined
	...
    1c68:	00000088 	.inst	0x00000088 ; undefined
    1c6c:	00000000 	.inst	0x00000000 ; undefined
    1c70:	00000097 	.inst	0x00000097 ; undefined
    1c74:	00000000 	.inst	0x00000000 ; undefined
    1c78:	97510001 	bl	fffffffffd441c7c <__bss_end__+0xfffffffffd3c0d3c>
    1c7c:	00000000 	.inst	0x00000000 ; undefined
    1c80:	a0000000 	.inst	0xa0000000 ; undefined
    1c84:	00000000 	.inst	0x00000000 ; undefined
    1c88:	04000000 	add	z0.b, p0/m, z0.b, z0.b
    1c8c:	5101f300 	sub	w0, w24, #0x7c
    1c90:	0000009f 	.inst	0x0000009f ; undefined
	...
    1ca0:	00005400 	.inst	0x00005400 ; undefined
    1ca4:	00000000 	.inst	0x00000000 ; undefined
    1ca8:	00005c00 	.inst	0x00005c00 ; undefined
    1cac:	00000000 	.inst	0x00000000 ; undefined
    1cb0:	30000200 	adr	x0, 1cf1 <_start-0x7e30f>
    1cb4:	00005c9f 	.inst	0x00005c9f ; undefined
    1cb8:	00000000 	.inst	0x00000000 ; undefined
    1cbc:	00006800 	.inst	0x00006800 ; undefined
    1cc0:	00000000 	.inst	0x00000000 ; undefined
    1cc4:	50000100 	adr	x0, 1ce6 <_start-0x7e31a>
    1cc8:	00000068 	.inst	0x00000068 ; undefined
    1ccc:	00000000 	.inst	0x00000000 ; undefined
    1cd0:	00000070 	.inst	0x00000070 ; undefined
    1cd4:	00000000 	.inst	0x00000000 ; undefined
    1cd8:	7f700003 	.inst	0x7f700003 ; undefined
    1cdc:	0000709f 	.inst	0x0000709f ; undefined
    1ce0:	00000000 	.inst	0x00000000 ; undefined
    1ce4:	00007c00 	.inst	0x00007c00 ; undefined
    1ce8:	00000000 	.inst	0x00000000 ; undefined
    1cec:	50000100 	adr	x0, 1d0e <_start-0x7e2f2>
	...
    1d00:	0000000c 	.inst	0x0000000c ; undefined
    1d04:	00000000 	.inst	0x00000000 ; undefined
    1d08:	00000018 	.inst	0x00000018 ; undefined
    1d0c:	00000000 	.inst	0x00000000 ; undefined
    1d10:	18500001 	ldr	w1, a1d10 <__bss_end__+0x20dd0>
    1d14:	00000000 	.inst	0x00000000 ; undefined
    1d18:	1c000000 	ldr	s0, 1d18 <_start-0x7e2e8>
    1d1c:	00000000 	.inst	0x00000000 ; undefined
    1d20:	04000000 	add	z0.b, p0/m, z0.b, z0.b
    1d24:	5001f300 	adr	x0, 5b86 <_start-0x7a47a>
    1d28:	00001c9f 	.inst	0x00001c9f ; undefined
    1d2c:	00000000 	.inst	0x00000000 ; undefined
    1d30:	00003000 	.inst	0x00003000 ; undefined
    1d34:	00000000 	.inst	0x00000000 ; undefined
    1d38:	50000100 	adr	x0, 1d5a <_start-0x7e2a6>
    1d3c:	00000030 	.inst	0x00000030 ; undefined
    1d40:	00000000 	.inst	0x00000000 ; undefined
    1d44:	0000003c 	.inst	0x0000003c ; undefined
    1d48:	00000000 	.inst	0x00000000 ; undefined
    1d4c:	3c630001 	.inst	0x3c630001 ; undefined
    1d50:	00000000 	.inst	0x00000000 ; undefined
    1d54:	44000000 	.inst	0x44000000 ; undefined
    1d58:	00000000 	.inst	0x00000000 ; undefined
    1d5c:	04000000 	add	z0.b, p0/m, z0.b, z0.b
    1d60:	5001f300 	adr	x0, 5bc2 <_start-0x7a43e>
    1d64:	0000009f 	.inst	0x0000009f ; undefined
	...
    1d7c:	00000800 	.inst	0x00000800 ; undefined
    1d80:	00000000 	.inst	0x00000000 ; undefined
    1d84:	50000100 	adr	x0, 1da6 <_start-0x7e25a>
    1d88:	00000008 	.inst	0x00000008 ; undefined
    1d8c:	00000000 	.inst	0x00000000 ; undefined
    1d90:	0000000c 	.inst	0x0000000c ; undefined
    1d94:	00000000 	.inst	0x00000000 ; undefined
    1d98:	01f30004 	.inst	0x01f30004 ; undefined
    1d9c:	00009f50 	.inst	0x00009f50 ; undefined
	...
    1dac:	00080000 	.inst	0x00080000 ; undefined
    1db0:	00000000 	.inst	0x00000000 ; undefined
    1db4:	000c0000 	.inst	0x000c0000 ; undefined
    1db8:	00000000 	.inst	0x00000000 ; undefined
    1dbc:	00010000 	.inst	0x00010000 ; undefined
    1dc0:	00000050 	.inst	0x00000050 ; undefined
	...

Disassembly of section .debug_aranges:

0000000000000000 <.debug_aranges>:
   0:	0000002c 	.inst	0x0000002c ; undefined
   4:	00000002 	.inst	0x00000002 ; undefined
   8:	00080000 	.inst	0x00080000 ; undefined
   c:	00000000 	.inst	0x00000000 ; undefined
  10:	00080010 	.inst	0x00080010 ; undefined
  14:	00000000 	.inst	0x00000000 ; undefined
  18:	00000038 	.inst	0x00000038 ; undefined
	...
  30:	0000002c 	.inst	0x0000002c ; undefined
  34:	00a10002 	.inst	0x00a10002 ; undefined
  38:	00080000 	.inst	0x00080000 ; undefined
  3c:	00000000 	.inst	0x00000000 ; undefined
  40:	00080048 	.inst	0x00080048 ; undefined
  44:	00000000 	.inst	0x00000000 ; undefined
  48:	000002c4 	.inst	0x000002c4 ; undefined
	...
  60:	0000002c 	.inst	0x0000002c ; undefined
  64:	076a0002 	.inst	0x076a0002 ; undefined
  68:	00080000 	.inst	0x00080000 ; undefined
  6c:	00000000 	.inst	0x00000000 ; undefined
  70:	0008030c 	.inst	0x0008030c ; undefined
  74:	00000000 	.inst	0x00000000 ; undefined
  78:	000000a0 	.inst	0x000000a0 ; undefined
	...
  90:	0000002c 	.inst	0x0000002c ; undefined
  94:	09440002 	.inst	0x09440002 ; undefined
  98:	00080000 	.inst	0x00080000 ; undefined
  9c:	00000000 	.inst	0x00000000 ; undefined
  a0:	000803ac 	.inst	0x000803ac ; undefined
  a4:	00000000 	.inst	0x00000000 ; undefined
  a8:	00000228 	.inst	0x00000228 ; undefined
	...
  c0:	0000002c 	.inst	0x0000002c ; undefined
  c4:	0cbd0002 	.inst	0x0cbd0002 ; undefined
  c8:	00080000 	.inst	0x00080000 ; undefined
  cc:	00000000 	.inst	0x00000000 ; undefined
  d0:	000805d4 	.inst	0x000805d4 ; undefined
  d4:	00000000 	.inst	0x00000000 ; undefined
  d8:	0000060c 	.inst	0x0000060c ; undefined
	...
  f0:	0000002c 	.inst	0x0000002c ; undefined
  f4:	12d50002 	.inst	0x12d50002 ; undefined
  f8:	00080000 	.inst	0x00080000 ; undefined
  fc:	00000000 	.inst	0x00000000 ; undefined
 100:	00080be0 	.inst	0x00080be0 ; undefined
 104:	00000000 	.inst	0x00000000 ; undefined
 108:	000000e8 	.inst	0x000000e8 ; undefined
	...
 120:	0000002c 	.inst	0x0000002c ; undefined
 124:	153e0002 	b	4f8012c <__bss_end__+0x4eff1ec>
 128:	00080000 	.inst	0x00080000 ; undefined
 12c:	00000000 	.inst	0x00000000 ; undefined
 130:	00080cc8 	.inst	0x00080cc8 ; undefined
 134:	00000000 	.inst	0x00000000 ; undefined
 138:	0000010c 	.inst	0x0000010c ; undefined
	...
 150:	0000002c 	.inst	0x0000002c ; undefined
 154:	19010002 	.inst	0x19010002 ; undefined
 158:	00080000 	.inst	0x00080000 ; undefined
 15c:	00000000 	.inst	0x00000000 ; undefined
 160:	00080dd4 	.inst	0x00080dd4 ; undefined
 164:	00000000 	.inst	0x00000000 ; undefined
 168:	00000118 	.inst	0x00000118 ; undefined
	...

Disassembly of section .debug_line:

0000000000000000 <.debug_line>:
   0:	0000003e 	.inst	0x0000003e ; undefined
   4:	001f0002 	.inst	0x001f0002 ; undefined
   8:	01040000 	.inst	0x01040000 ; undefined
   c:	000d0efb 	.inst	0x000d0efb ; undefined
  10:	01010101 	.inst	0x01010101 ; undefined
  14:	01000000 	.inst	0x01000000 ; undefined
  18:	00010000 	.inst	0x00010000 ; undefined
  1c:	61747363 	.inst	0x61747363 ; undefined
  20:	632e7472 	.inst	0x632e7472 ; undefined
  24:	00000000 	.inst	0x00000000 ; undefined
  28:	02090000 	.inst	0x02090000 ; undefined
  2c:	00080010 	.inst	0x00080010 ; undefined
  30:	00000000 	.inst	0x00000000 ; undefined
  34:	2f010a03 	.inst	0x2f010a03 ; undefined
  38:	4e2d2131 	ssubl2	v17.8h, v9.16b, v13.16b
  3c:	00020227 	.inst	0x00020227 ; undefined
  40:	00960101 	.inst	0x00960101 ; undefined
  44:	00020000 	.inst	0x00020000 ; undefined
  48:	0000002c 	.inst	0x0000002c ; undefined
  4c:	0efb0104 	.inst	0x0efb0104 ; undefined
  50:	0101000d 	.inst	0x0101000d ; undefined
  54:	00000101 	.inst	0x00000101 ; undefined
  58:	00000100 	.inst	0x00000100 ; undefined
  5c:	62696c01 	.inst	0x62696c01 ; undefined
  60:	67000073 	.inst	0x67000073 ; undefined
  64:	2e6f6970 	.inst	0x2e6f6970 ; undefined
  68:	00010063 	.inst	0x00010063 ; undefined
  6c:	69706700 	ldpsw	x0, x25, [x24, #-128]
  70:	00682e6f 	.inst	0x00682e6f ; undefined
  74:	00000001 	.inst	0x00000001 ; undefined
  78:	48020900 	stxrh	w2, w0, [x8]
  7c:	00000800 	.inst	0x00000800 ; undefined
  80:	03000000 	.inst	0x03000000 ; undefined
  84:	59140121 	.inst	0x59140121 ; undefined
  88:	3d821103 	str	q3, [x8, #2112]
  8c:	41206e03 	.inst	0x41206e03 ; undefined
  90:	29031c3d 	stp	w29, w7, [x1, #24]
  94:	205d032e 	.inst	0x205d032e ; undefined
  98:	223d223d 	.inst	0x223d223d ; undefined
  9c:	206f033d 	.inst	0x206f033d ; undefined
  a0:	23202c03 	.inst	0x23202c03 ; undefined
  a4:	31143014 	adds	w20, w0, #0x50c
  a8:	144f1d3d 	b	13c759c <__bss_end__+0x134665c>
  ac:	501c3e31 	adr	x17, 38872 <_start-0x4778e>
  b0:	1c3e3114 	ldr	s20, 7c6d0 <_start-0x3930>
  b4:	233d1350 	.inst	0x233d1350 ; undefined
  b8:	2f5c6315 	umlsl	v21.4s, v24.4h, v12.h[1]
  bc:	4c4d6975 	.inst	0x4c4d6975 ; undefined
  c0:	5b752121 	.inst	0x5b752121 ; undefined
  c4:	2f2f333b 	.inst	0x2f2f333b ; undefined
  c8:	302f2f30 	adr	x16, 5e6ad <_start-0x21953>
  cc:	30232f68 	adr	x8, 466b9 <_start-0x39947>
  d0:	4b43453d 	sub	w29, w9, w3, lsr #17
  d4:	022f2f2f 	.inst	0x022f2f2f ; undefined
  d8:	01010004 	.inst	0x01010004 ; undefined
  dc:	00000052 	.inst	0x00000052 ; undefined
  e0:	00230002 	.inst	0x00230002 ; NYI
  e4:	01040000 	.inst	0x01040000 ; undefined
  e8:	000d0efb 	.inst	0x000d0efb ; undefined
  ec:	01010101 	.inst	0x01010101 ; undefined
  f0:	01000000 	.inst	0x01000000 ; undefined
  f4:	6c010000 	stnp	d0, d0, [x0, #16]
  f8:	00736269 	.inst	0x00736269 ; undefined
  fc:	6d697400 	ldp	d0, d29, [x0, #-368]
 100:	632e7265 	.inst	0x632e7265 ; undefined
 104:	00000100 	.inst	0x00000100 ; undefined
 108:	02090000 	.inst	0x02090000 ; undefined
 10c:	0008030c 	.inst	0x0008030c ; undefined
 110:	00000000 	.inst	0x00000000 ; undefined
 114:	13011703 	sbfx	w3, w24, #1, #5
 118:	09033d4b 	.inst	0x09033d4b ; undefined
 11c:	273d1320 	.inst	0x273d1320 ; undefined
 120:	0402004b 	.inst	0x0402004b ; undefined
 124:	434b2f01 	.inst	0x434b2f01 ; undefined
 128:	2f353d2f 	.inst	0x2f353d2f ; undefined
 12c:	0002024b 	.inst	0x0002024b ; undefined
 130:	011b0101 	.inst	0x011b0101 ; undefined
 134:	00020000 	.inst	0x00020000 ; undefined
 138:	0000008b 	.inst	0x0000008b ; undefined
 13c:	0efb0104 	.inst	0x0efb0104 ; undefined
 140:	0101000d 	.inst	0x0101000d ; undefined
 144:	00000101 	.inst	0x00000101 ; undefined
 148:	00000100 	.inst	0x00000100 ; undefined
 14c:	62696c01 	.inst	0x62696c01 ; undefined
 150:	752f0073 	.inst	0x752f0073 ; undefined
 154:	6c2f7273 	stnp	d19, d28, [x19, #-272]
 158:	6c61636f 	ldnp	d15, d24, [x27, #-496]
 15c:	6c65432f 	ldnp	d15, d16, [x25, #-432]
 160:	2f72616c 	umlsl	v12.4s, v11.4h, v2.h[3]
 164:	63726161 	.inst	0x63726161 ; undefined
 168:	2d343668 	stp	s8, s13, [x19, #-96]
 16c:	656e6f6e 	fnmls	z14.h, p3/m, z27.h, z14.h
 170:	666c652d 	.inst	0x666c652d ; undefined
 174:	322e372f 	orr	w15, w25, #0xfffc0000
 178:	742f302e 	.inst	0x742f302e ; undefined
 17c:	636c6f6f 	.inst	0x636c6f6f ; undefined
 180:	6e696168 	rsubhn2	v8.8h, v11.4s, v9.4s
 184:	62696c2f 	.inst	0x62696c2f ; undefined
 188:	6363672f 	.inst	0x6363672f ; undefined
 18c:	7261612f 	.inst	0x7261612f ; undefined
 190:	34366863 	cbz	w3, 6ce9c <_start-0x13164>
 194:	6e6f6e2d 	umin	v13.8h, v17.8h, v15.8h
 198:	6c652d65 	ldnp	d5, d11, [x11, #-432]
 19c:	2e372f66 	uqsub	v6.8b, v27.8b, v23.8b
 1a0:	2f302e32 	.inst	0x2f302e32 ; undefined
 1a4:	6c636e69 	ldnp	d9, d27, [x19, #-464]
 1a8:	00656475 	.inst	0x00656475 ; undefined
 1ac:	72747300 	.inst	0x72747300 ; undefined
 1b0:	73676e69 	.inst	0x73676e69 ; undefined
 1b4:	0100632e 	.inst	0x0100632e ; undefined
 1b8:	74730000 	.inst	0x74730000 ; undefined
 1bc:	66656464 	.inst	0x66656464 ; undefined
 1c0:	0200682e 	.inst	0x0200682e ; undefined
 1c4:	00000000 	.inst	0x00000000 ; undefined
 1c8:	03ac0209 	.inst	0x03ac0209 ; undefined
 1cc:	00000008 	.inst	0x00000008 ; undefined
 1d0:	14140000 	b	5001d0 <__bss_end__+0x47f290>
 1d4:	4b24221f 	sub	wsp, w16, w4, uxth
 1d8:	20740335 	.inst	0x20740335 ; undefined
 1dc:	3f4b212f 	.inst	0x3f4b212f ; undefined
 1e0:	22263e4b 	.inst	0x22263e4b ; undefined
 1e4:	4c2f2121 	.inst	0x4c2f2121 ; undefined
 1e8:	20262b41 	.inst	0x20262b41 ; undefined
 1ec:	04020013 	.inst	0x04020013 ; undefined
 1f0:	02002f03 	.inst	0x02002f03 ; undefined
 1f4:	001f0304 	.inst	0x001f0304 ; undefined
 1f8:	06010402 	.inst	0x06010402 ; undefined
 1fc:	22320620 	.inst	0x22320620 ; undefined
 200:	04020013 	.inst	0x04020013 ; undefined
 204:	02002f03 	.inst	0x02002f03 ; undefined
 208:	002d0304 	.inst	0x002d0304 ; NYI
 20c:	06010402 	.inst	0x06010402 ; undefined
 210:	22320620 	.inst	0x22320620 ; undefined
 214:	1f212113 	fnmadd	s19, s8, s1, s8
 218:	2f67304e 	fcmla	v14.4h, v2.4h, v7.h[1], #90
 21c:	0402002f 	.inst	0x0402002f ; undefined
 220:	062e0601 	.inst	0x062e0601 ; undefined
 224:	1e214627 	fccmp	s17, s1, #0x7, mi  // mi = first
 228:	01040200 	.inst	0x01040200 ; undefined
 22c:	24064a06 	cmpge	p6.b, p2/z, z16.b, z6.d
 230:	02002f32 	.inst	0x02002f32 ; undefined
 234:	3c060104 	stur	b4, [x8, #96]
 238:	2a226906 	orn	w6, w8, w2, lsl #26
 23c:	21217534 	.inst	0x21217534 ; undefined
 240:	001e2f21 	.inst	0x001e2f21 ; undefined
 244:	06010402 	.inst	0x06010402 ; undefined
 248:	305c063c 	adr	x28, b830d <__bss_end__+0x373cd>
 24c:	01000502 	.inst	0x01000502 ; undefined
 250:	00016a01 	.inst	0x00016a01 ; undefined
 254:	af000200 	.inst	0xaf000200 ; undefined
 258:	04000000 	add	z0.b, p0/m, z0.b, z0.b
 25c:	0d0efb01 	.inst	0x0d0efb01 ; undefined
 260:	01010100 	.inst	0x01010100 ; undefined
 264:	00000001 	.inst	0x00000001 ; undefined
 268:	01000001 	.inst	0x01000001 ; undefined
 26c:	7362696c 	.inst	0x7362696c ; undefined
 270:	73752f00 	.inst	0x73752f00 ; undefined
 274:	6f6c2f72 	.inst	0x6f6c2f72 ; undefined
 278:	2f6c6163 	umlsl	v3.4s, v11.4h, v12.h[2]
 27c:	6c6c6543 	ldnp	d3, d25, [x10, #-320]
 280:	612f7261 	.inst	0x612f7261 ; undefined
 284:	68637261 	.inst	0x68637261 ; undefined
 288:	6e2d3436 	cmhi	v22.16b, v1.16b, v13.16b
 28c:	2d656e6f 	ldp	s15, s27, [x19, #-216]
 290:	2f666c65 	.inst	0x2f666c65 ; undefined
 294:	2e322e37 	uqsub	v23.8b, v17.8b, v18.8b
 298:	6f742f30 	.inst	0x6f742f30 ; undefined
 29c:	68636c6f 	.inst	0x68636c6f ; undefined
 2a0:	2f6e6961 	umlsl	v1.4s, v11.4h, v14.h[6]
 2a4:	2f62696c 	umlsl	v12.4s, v11.4h, v2.h[6]
 2a8:	2f636367 	umlsl	v7.4s, v27.4h, v3.h[2]
 2ac:	63726161 	.inst	0x63726161 ; undefined
 2b0:	2d343668 	stp	s8, s13, [x19, #-96]
 2b4:	656e6f6e 	fnmls	z14.h, p3/m, z27.h, z14.h
 2b8:	666c652d 	.inst	0x666c652d ; undefined
 2bc:	322e372f 	orr	w15, w25, #0xfffc0000
 2c0:	692f302e 	.inst	0x692f302e ; undefined
 2c4:	756c636e 	.inst	0x756c636e ; undefined
 2c8:	00006564 	.inst	0x00006564 ; undefined
 2cc:	6e697270 	uabdl2	v16.4s, v19.8h, v9.8h
 2d0:	632e6674 	.inst	0x632e6674 ; undefined
 2d4:	00000100 	.inst	0x00000100 ; undefined
 2d8:	61647473 	.inst	0x61647473 ; undefined
 2dc:	682e6772 	.inst	0x682e6772 ; undefined
 2e0:	00000200 	.inst	0x00000200 ; undefined
 2e4:	74726175 	.inst	0x74726175 ; undefined
 2e8:	0100682e 	.inst	0x0100682e ; undefined
 2ec:	74730000 	.inst	0x74730000 ; undefined
 2f0:	676e6972 	.inst	0x676e6972 ; undefined
 2f4:	00682e73 	.inst	0x00682e73 ; undefined
 2f8:	3c000001 	stur	b1, [x0]
 2fc:	6c697562 	ldnp	d2, d29, [x11, #-368]
 300:	6e692d74 	uqsub	v20.8h, v11.8h, v9.8h
 304:	0000003e 	.inst	0x0000003e ; undefined
 308:	09000000 	.inst	0x09000000 ; undefined
 30c:	0805d402 	stlxrb	w5, w2, [x0]
 310:	00000000 	.inst	0x00000000 ; undefined
 314:	68131600 	.inst	0x68131600 ; undefined
 318:	351c2269 	cbnz	w9, 38764 <_start-0x4789c>
 31c:	21212113 	.inst	0x21212113 ; undefined
 320:	2d21241e 	stp	s30, s9, [x0, #-248]
 324:	213da131 	.inst	0x213da131 ; undefined
 328:	00251b3d 	.inst	0x00251b3d ; NYI
 32c:	21020402 	.inst	0x21020402 ; undefined
 330:	04040200 	.inst	0x04040200 ; undefined
 334:	02009e06 	.inst	0x02009e06 ; undefined
 338:	3d060404 	str	b4, [x0, #385]
 33c:	04040200 	.inst	0x04040200 ; undefined
 340:	04020021 	.inst	0x04020021 ; undefined
 344:	02001d04 	.inst	0x02001d04 ; undefined
 348:	20060204 	.inst	0x20060204 ; undefined
 34c:	02002f06 	.inst	0x02002f06 ; undefined
 350:	58060104 	ldr	x4, c370 <_start-0x73c90>
 354:	21214e06 	.inst	0x21214e06 ; undefined
 358:	03587703 	.inst	0x03587703 ; undefined
 35c:	242f2e0b 	cmplo	p11.b, p3/z, z16.b, #60
 360:	792f2a2f 	strh	w15, [x17, #6036]
 364:	02002392 	.inst	0x02002392 ; undefined
 368:	3c060104 	stur	b4, [x8, #96]
 36c:	212f2f06 	.inst	0x212f2f06 ; undefined
 370:	03233121 	.inst	0x03233121 ; undefined
 374:	034b7411 	.inst	0x034b7411 ; undefined
 378:	8333826b 	.inst	0x8333826b ; undefined
 37c:	b11d2121 	adds	x1, x9, #0x748
 380:	1e21ad21 	fcsel	s1, s9, s1, ge  // ge = tcont
 384:	212121b0 	.inst	0x212121b0 ; undefined
 388:	c9672125 	.inst	0xc9672125 ; undefined
 38c:	b11d4b21 	adds	x1, x25, #0x752
 390:	1d4b21c9 	.inst	0x1d4b21c9 ; undefined
 394:	c96721b1 	.inst	0xc96721b1 ; undefined
 398:	031d4b21 	.inst	0x031d4b21 ; undefined
 39c:	6822ac0d 	.inst	0x6822ac0d ; undefined
 3a0:	316a91e7 	adds	w7, w15, #0xaa4, lsl #12
 3a4:	a1914008 	.inst	0xa1914008 ; undefined
 3a8:	03040200 	.inst	0x03040200 ; undefined
 3ac:	0402002f 	.inst	0x0402002f ; undefined
 3b0:	02003b03 	.inst	0x02003b03 ; undefined
 3b4:	20060104 	.inst	0x20060104 ; undefined
 3b8:	05023206 	orr	z6.d, z6.d, #0xfc000000000007ff
 3bc:	ed010100 	.inst	0xed010100 ; undefined
 3c0:	02000000 	.inst	0x02000000 ; undefined
 3c4:	0000ac00 	.inst	0x0000ac00 ; undefined
 3c8:	fb010400 	.inst	0xfb010400 ; undefined
 3cc:	01000d0e 	.inst	0x01000d0e ; undefined
 3d0:	00010101 	.inst	0x00010101 ; undefined
 3d4:	00010000 	.inst	0x00010000 ; undefined
 3d8:	752f0100 	.inst	0x752f0100 ; undefined
 3dc:	6c2f7273 	stnp	d19, d28, [x19, #-272]
 3e0:	6c61636f 	ldnp	d15, d24, [x27, #-496]
 3e4:	6c65432f 	ldnp	d15, d16, [x25, #-432]
 3e8:	2f72616c 	umlsl	v12.4s, v11.4h, v2.h[3]
 3ec:	63726161 	.inst	0x63726161 ; undefined
 3f0:	2d343668 	stp	s8, s13, [x19, #-96]
 3f4:	656e6f6e 	fnmls	z14.h, p3/m, z27.h, z14.h
 3f8:	666c652d 	.inst	0x666c652d ; undefined
 3fc:	322e372f 	orr	w15, w25, #0xfffc0000
 400:	742f302e 	.inst	0x742f302e ; undefined
 404:	636c6f6f 	.inst	0x636c6f6f ; undefined
 408:	6e696168 	rsubhn2	v8.8h, v11.4s, v9.4s
 40c:	62696c2f 	.inst	0x62696c2f ; undefined
 410:	6363672f 	.inst	0x6363672f ; undefined
 414:	7261612f 	.inst	0x7261612f ; undefined
 418:	34366863 	cbz	w3, 6d124 <_start-0x12edc>
 41c:	6e6f6e2d 	umin	v13.8h, v17.8h, v15.8h
 420:	6c652d65 	ldnp	d5, d11, [x11, #-432]
 424:	2e372f66 	uqsub	v6.8b, v27.8b, v23.8b
 428:	2f302e32 	.inst	0x2f302e32 ; undefined
 42c:	6c636e69 	ldnp	d9, d27, [x19, #-464]
 430:	00656475 	.inst	0x00656475 ; undefined
 434:	7362696c 	.inst	0x7362696c ; undefined
 438:	61620000 	.inst	0x61620000 ; undefined
 43c:	72746b63 	.inst	0x72746b63 ; undefined
 440:	2e656361 	rsubhn	v1.4h, v27.4s, v5.4s
 444:	00000063 	.inst	0x00000063 ; undefined
 448:	63616200 	.inst	0x63616200 ; undefined
 44c:	6172746b 	.inst	0x6172746b ; undefined
 450:	682e6563 	.inst	0x682e6563 ; undefined
 454:	00000000 	.inst	0x00000000 ; undefined
 458:	69647473 	ldpsw	x19, x29, [x3, #-224]
 45c:	672d746e 	.inst	0x672d746e ; undefined
 460:	682e6363 	.inst	0x682e6363 ; undefined
 464:	00000100 	.inst	0x00000100 ; undefined
 468:	6e697270 	uabdl2	v16.4s, v19.8h, v9.8h
 46c:	682e6674 	.inst	0x682e6674 ; undefined
 470:	00000200 	.inst	0x00000200 ; undefined
 474:	02090000 	.inst	0x02090000 ; undefined
 478:	00080be0 	.inst	0x00080be0 ; undefined
 47c:	00000000 	.inst	0x00000000 ; undefined
 480:	23011103 	.inst	0x23011103 ; undefined
 484:	7521251f 	.inst	0x7521251f ; undefined
 488:	1b21213d 	.inst	0x1b21213d ; undefined
 48c:	01040200 	.inst	0x01040200 ; undefined
 490:	36062e06 	tbz	w6, #0, ffffffffffffca50 <__bss_end__+0xfffffffffff7bb10>
 494:	02006822 	.inst	0x02006822 ; undefined
 498:	002f0304 	.inst	0x002f0304 ; NYI
 49c:	ab030402 	adds	x2, x0, x3, lsl #1
 4a0:	01040200 	.inst	0x01040200 ; undefined
 4a4:	31062006 	adds	w6, w0, #0x188
 4a8:	0267314c 	.inst	0x0267314c ; undefined
 4ac:	01010002 	.inst	0x01010002 ; undefined
 4b0:	000000d7 	.inst	0x000000d7 ; undefined
 4b4:	00960002 	.inst	0x00960002 ; undefined
 4b8:	01040000 	.inst	0x01040000 ; undefined
 4bc:	000d0efb 	.inst	0x000d0efb ; undefined
 4c0:	01010101 	.inst	0x01010101 ; undefined
 4c4:	01000000 	.inst	0x01000000 ; undefined
 4c8:	6c010000 	stnp	d0, d0, [x0, #16]
 4cc:	00736269 	.inst	0x00736269 ; undefined
 4d0:	7273752f 	.inst	0x7273752f ; undefined
 4d4:	636f6c2f 	.inst	0x636f6c2f ; undefined
 4d8:	432f6c61 	.inst	0x432f6c61 ; undefined
 4dc:	616c6c65 	.inst	0x616c6c65 ; undefined
 4e0:	61612f72 	.inst	0x61612f72 ; undefined
 4e4:	36686372 	tbz	w18, #13, 1150 <_start-0x7eeb0>
 4e8:	6f6e2d34 	.inst	0x6f6e2d34 ; undefined
 4ec:	652d656e 	.inst	0x652d656e ; undefined
 4f0:	372f666c 	tbnz	w12, #5, fffffffffffff1bc <__bss_end__+0xfffffffffff7e27c>
 4f4:	302e322e 	adr	x14, 5cb39 <_start-0x234c7>
 4f8:	6f6f742f 	uqshl	v15.2d, v1.2d, #47
 4fc:	6168636c 	.inst	0x6168636c ; undefined
 500:	6c2f6e69 	stnp	d9, d27, [x19, #-272]
 504:	672f6269 	.inst	0x672f6269 ; undefined
 508:	612f6363 	.inst	0x612f6363 ; undefined
 50c:	68637261 	.inst	0x68637261 ; undefined
 510:	6e2d3436 	cmhi	v22.16b, v1.16b, v13.16b
 514:	2d656e6f 	ldp	s15, s27, [x19, #-216]
 518:	2f666c65 	.inst	0x2f666c65 ; undefined
 51c:	2e322e37 	uqsub	v23.8b, v17.8b, v18.8b
 520:	6e692f30 	uqsub	v16.8h, v25.8h, v9.8h
 524:	64756c63 	.inst	0x64756c63 ; undefined
 528:	75000065 	.inst	0x75000065 ; undefined
 52c:	2e747261 	uabdl	v1.4s, v19.4h, v20.4h
 530:	00010063 	.inst	0x00010063 ; undefined
 534:	69706700 	ldpsw	x0, x25, [x24, #-128]
 538:	00682e6f 	.inst	0x00682e6f ; undefined
 53c:	73000001 	.inst	0x73000001 ; undefined
 540:	6e696474 	umax	v20.8h, v3.8h, v9.8h
 544:	63672d74 	.inst	0x63672d74 ; undefined
 548:	00682e63 	.inst	0x00682e63 ; undefined
 54c:	00000002 	.inst	0x00000002 ; undefined
 550:	c8020900 	stxr	w2, x0, [x8]
 554:	0000080c 	.inst	0x0000080c ; undefined
 558:	03000000 	.inst	0x03000000 ; undefined
 55c:	3d2f013a 	str	b26, [x9, #3008]
 560:	213d5a3f 	.inst	0x213d5a3f ; undefined
 564:	3321212f 	.inst	0x3321212f ; undefined
 568:	00302130 	.inst	0x00302130 ; NYI
 56c:	13010402 	sbfx	w2, w0, #1, #1
 570:	4c303d4b 	.inst	0x4c303d4b ; undefined
 574:	01040200 	.inst	0x01040200 ; undefined
 578:	453e4b31 	.inst	0x453e4b31 ; undefined
 57c:	04020043 	.inst	0x04020043 ; undefined
 580:	224b1301 	.inst	0x224b1301 ; undefined
 584:	02023d13 	.inst	0x02023d13 ; undefined
 588:	a7010100 	.inst	0xa7010100 ; undefined
 58c:	02000000 	.inst	0x02000000 ; undefined
 590:	00005b00 	.inst	0x00005b00 ; undefined
 594:	fb010400 	.inst	0xfb010400 ; undefined
 598:	01000d0e 	.inst	0x01000d0e ; undefined
 59c:	00010101 	.inst	0x00010101 ; undefined
 5a0:	00010000 	.inst	0x00010000 ; undefined
 5a4:	696c0100 	.inst	0x696c0100 ; undefined
 5a8:	00007362 	.inst	0x00007362 ; undefined
 5ac:	2e707061 	uabdl	v1.4s, v3.4h, v16.4h
 5b0:	00000063 	.inst	0x00000063 ; undefined
 5b4:	69706700 	ldpsw	x0, x25, [x24, #-128]
 5b8:	00682e6f 	.inst	0x00682e6f ; undefined
 5bc:	74000001 	.inst	0x74000001 ; undefined
 5c0:	72656d69 	.inst	0x72656d69 ; undefined
 5c4:	0100682e 	.inst	0x0100682e ; undefined
 5c8:	61750000 	.inst	0x61750000 ; undefined
 5cc:	682e7472 	.inst	0x682e7472 ; undefined
 5d0:	00000100 	.inst	0x00000100 ; undefined
 5d4:	6e697270 	uabdl2	v16.4s, v19.8h, v9.8h
 5d8:	682e6674 	.inst	0x682e6674 ; undefined
 5dc:	00000100 	.inst	0x00000100 ; undefined
 5e0:	6b636162 	.inst	0x6b636162 ; undefined
 5e4:	63617274 	.inst	0x63617274 ; undefined
 5e8:	00682e65 	.inst	0x00682e65 ; undefined
 5ec:	00000000 	.inst	0x00000000 ; undefined
 5f0:	d4020900 	.inst	0xd4020900 ; undefined
 5f4:	0000080d 	.inst	0x0000080d ; undefined
 5f8:	19000000 	.inst	0x19000000 ; undefined
 5fc:	13312213 	.inst	0x13312213 ; undefined
 600:	4e1b232f 	tbl	v15.16b, {v25.16b, v26.16b}, v27.16b
 604:	2f313f3d 	.inst	0x2f313f3d ; undefined
 608:	03040200 	.inst	0x03040200 ; undefined
 60c:	0402002f 	.inst	0x0402002f ; undefined
 610:	2f305701 	sli	v1.2s, v24.2s, #16
 614:	302f2f31 	adr	x17, 5ebf9 <_start-0x21407>
 618:	213d4b3e 	.inst	0x213d4b3e ; undefined
 61c:	212f4d21 	.inst	0x212f4d21 ; undefined
 620:	02002121 	.inst	0x02002121 ; undefined
 624:	00300104 	.inst	0x00300104 ; NYI
 628:	3d010402 	str	b2, [x0, #65]
 62c:	01040200 	.inst	0x01040200 ; undefined
 630:	00030222 	.inst	0x00030222 ; undefined
 634:	Address 0x0000000000000634 is out of bounds.


Disassembly of section .debug_str:

0000000000000000 <.debug_str>:
   0:	73625f5f 	.inst	0x73625f5f ; undefined
   4:	6e655f73 	uqrshl	v19.8h, v27.8h, v5.8h
   8:	005f5f64 	.inst	0x005f5f64 ; undefined
   c:	5f737362 	sqdmlsl	s2, h27, v3.h[3]
  10:	00646e65 	.inst	0x00646e65 ; undefined
  14:	6573552f 	fnmla	z15.h, p5/m, z9.h, z19.h
  18:	6d2f7372 	stp	d18, d28, [x27, #-272]
  1c:	61777261 	.inst	0x61777261 ; undefined
  20:	6c61736e 	ldnp	d14, d28, [x27, #-496]
  24:	2f616d61 	.inst	0x2f616d61 ; undefined
  28:	6b736564 	.inst	0x6b736564 ; undefined
  2c:	2f706f74 	.inst	0x2f706f74 ; undefined
  30:	30317363 	adr	x3, 62e9d <_start-0x1d163>
  34:	682f6537 	.inst	0x682f6537 ; undefined
  38:	77656d6f 	.inst	0x77656d6f ; undefined
  3c:	736b726f 	.inst	0x736b726f ; undefined
  40:	7373612f 	.inst	0x7373612f ; undefined
  44:	346e6769 	cbz	w9, dcd30 <__bss_end__+0x5bdf0>
  48:	74736300 	.inst	0x74736300 ; undefined
  4c:	2e747261 	uabdl	v1.4s, v19.4h, v20.4h
  50:	4e470063 	.inst	0x4e470063 ; undefined
  54:	39432055 	ldrb	w21, [x2, #200]
  58:	2e372039 	usubl	v25.8h, v1.8b, v23.8b
  5c:	20302e32 	.inst	0x20302e32 ; undefined
  60:	70636d2d 	adr	x13, c6e07 <__bss_end__+0x45ec7>
  64:	6f633d75 	.inst	0x6f633d75 ; undefined
  68:	78657472 	.inst	0x78657472 ; undefined
  6c:	3335612d 	.inst	0x3335612d ; undefined
  70:	6c6d2d20 	ldnp	d0, d11, [x9, #-304]
  74:	6c747469 	ldnp	d9, d29, [x3, #-192]
  78:	6e652d65 	uqsub	v5.8h, v11.8h, v5.8h
  7c:	6e616964 	fcvtxn2	v4.4s, v11.2d
  80:	616d2d20 	.inst	0x616d2d20 ; undefined
  84:	6c3d6962 	stnp	d2, d26, [x11, #-48]
  88:	20343670 	.inst	0x20343670 ; undefined
  8c:	2d20672d 	stp	s13, s25, [x25, #-256]
  90:	2d20674f 	stp	s15, s25, [x26, #-256]
  94:	3d647473 	ldr	b19, [x3, #2333]
  98:	39756e67 	ldrb	w7, [x19, #3419]
  9c:	662d2039 	.inst	0x662d2039 ; undefined
  a0:	65657266 	fnmls	z6.h, p4/m, z19.h, z5.h
  a4:	6e617473 	uabd	v19.8h, v3.8h, v1.8h
  a8:	676e6964 	.inst	0x676e6964 ; undefined
  ac:	6e662d20 	uqsub	v0.8h, v9.8h, v6.8h
  b0:	6d6f2d6f 	ldp	d15, d11, [x11, #-272]
  b4:	662d7469 	.inst	0x662d7469 ; undefined
  b8:	656d6172 	fnmls	z18.h, p0/m, z11.h, z13.h
  bc:	696f702d 	ldpsw	x13, x28, [x1, #-136]
  c0:	7265746e 	.inst	0x7265746e ; undefined
  c4:	625f5f00 	.inst	0x625f5f00 ; undefined
  c8:	735f7373 	.inst	0x735f7373 ; undefined
  cc:	74726174 	.inst	0x74726174 ; undefined
  d0:	5f005f5f 	.inst	0x5f005f5f ; undefined
  d4:	61747363 	.inst	0x61747363 ; undefined
  d8:	47007472 	.inst	0x47007472 ; undefined
  dc:	5f4f4950 	.inst	0x5f4f4950 ; undefined
  e0:	434e5546 	.inst	0x434e5546 ; undefined
  e4:	544c415f 	.inst	0x544c415f ; undefined
  e8:	44450031 	.inst	0x44450031 ; undefined
  ec:	45003053 	.inst	0x45003053 ; undefined
  f0:	00315344 	.inst	0x00315344 ; NYI
  f4:	5f6e6970 	.inst	0x5f6e6970 ; undefined
  f8:	625f6f74 	.inst	0x625f6f74 ; undefined
  fc:	6d5f7469 	ldp	d9, d29, [x3, #496]
 100:	47007061 	.inst	0x47007061 ; undefined
 104:	5f4f4950 	.inst	0x5f4f4950 ; undefined
 108:	434e5546 	.inst	0x434e5546 ; undefined
 10c:	54554f5f 	.inst	0x54554f5f ; undefined
 110:	00545550 	.inst	0x00545550 ; undefined
 114:	6f697067 	fcmla	v7.8h, v3.8h, v9.h[1], #270
 118:	7465735f 	.inst	0x7465735f ; undefined
 11c:	74756f5f 	.inst	0x74756f5f ; undefined
 120:	00747570 	.inst	0x00747570 ; undefined
 124:	4f495047 	.inst	0x4f495047 ; undefined
 128:	4e49505f 	.inst	0x4e49505f ; undefined
 12c:	47003033 	.inst	0x47003033 ; undefined
 130:	5f4f4950 	.inst	0x5f4f4950 ; undefined
 134:	334e4950 	.inst	0x334e4950 ; undefined
 138:	50470031 	adr	x17, 8e13e <__bss_end__+0xd1fe>
 13c:	505f4f49 	adr	x9, beb26 <__bss_end__+0x3dbe6>
 140:	32334e49 	orr	w9, w18, #0xffffe001
 144:	49504700 	.inst	0x49504700 ; undefined
 148:	49505f4f 	.inst	0x49505f4f ; undefined
 14c:	0033334e 	.inst	0x0033334e ; NYI
 150:	4f495047 	.inst	0x4f495047 ; undefined
 154:	4e49505f 	.inst	0x4e49505f ; undefined
 158:	47003433 	.inst	0x47003433 ; undefined
 15c:	5f4f4950 	.inst	0x5f4f4950 ; undefined
 160:	334e4950 	.inst	0x334e4950 ; undefined
 164:	50470035 	adr	x21, 8e16a <__bss_end__+0xd22a>
 168:	505f4f49 	adr	x9, beb52 <__bss_end__+0x3dc12>
 16c:	36334e49 	tbz	w9, #6, 6b34 <_start-0x794cc>
 170:	49504700 	.inst	0x49504700 ; undefined
 174:	49505f4f 	.inst	0x49505f4f ; undefined
 178:	0037334e 	.inst	0x0037334e ; NYI
 17c:	4f495047 	.inst	0x4f495047 ; undefined
 180:	4e49505f 	.inst	0x4e49505f ; undefined
 184:	47003833 	.inst	0x47003833 ; undefined
 188:	5f4f4950 	.inst	0x5f4f4950 ; undefined
 18c:	434e5546 	.inst	0x434e5546 ; undefined
 190:	544c415f 	.inst	0x544c415f ; undefined
 194:	50470034 	adr	x20, 8e19a <__bss_end__+0xd25a>
 198:	465f4f49 	.inst	0x465f4f49 ; undefined
 19c:	5f434e55 	.inst	0x5f434e55 ; undefined
 1a0:	35544c41 	cbnz	w1, a8b28 <__bss_end__+0x27be8>
 1a4:	6c616300 	ldnp	d0, d24, [x24, #-496]
 1a8:	616c7563 	.inst	0x616c7563 ; undefined
 1ac:	465f6574 	.inst	0x465f6574 ; undefined
 1b0:	5f4c4553 	.inst	0x5f4c4553 ; undefined
 1b4:	69676572 	ldpsw	x18, x25, [x11, #-200]
 1b8:	72657473 	.inst	0x72657473 ; undefined
 1bc:	49504700 	.inst	0x49504700 ; undefined
 1c0:	49505f4f 	.inst	0x49505f4f ; undefined
 1c4:	414c5f4e 	.inst	0x414c5f4e ; undefined
 1c8:	47005453 	.inst	0x47005453 ; undefined
 1cc:	5f4f4950 	.inst	0x5f4f4950 ; undefined
 1d0:	334e4950 	.inst	0x334e4950 ; undefined
 1d4:	70670039 	adr	x25, ce1db <__bss_end__+0x4d29b>
 1d8:	775f6f69 	.inst	0x775f6f69 ; undefined
 1dc:	65746972 	fnmls	z18.h, p2/m, z11.h, z20.h
 1e0:	4e455200 	.inst	0x4e455200 ; undefined
 1e4:	4c430030 	.inst	0x4c430030 ; undefined
 1e8:	43003052 	.inst	0x43003052 ; undefined
 1ec:	0031524c 	.inst	0x0031524c ; NYI
 1f0:	4f495047 	.inst	0x4f495047 ; undefined
 1f4:	4e49505f 	.inst	0x4e49505f ; undefined
 1f8:	47003034 	.inst	0x47003034 ; undefined
 1fc:	5f4f4950 	.inst	0x5f4f4950 ; undefined
 200:	344e4950 	cbz	w16, 9cb28 <__bss_end__+0x1bbe8>
 204:	50470031 	adr	x17, 8e20a <__bss_end__+0xd2ca>
 208:	505f4f49 	adr	x9, bebf2 <__bss_end__+0x3dcb2>
 20c:	32344e49 	orr	w9, w18, #0xfffff000
 210:	49504700 	.inst	0x49504700 ; undefined
 214:	49505f4f 	.inst	0x49505f4f ; undefined
 218:	0033344e 	.inst	0x0033344e ; NYI
 21c:	4f495047 	.inst	0x4f495047 ; undefined
 220:	4e49505f 	.inst	0x4e49505f ; undefined
 224:	47003434 	.inst	0x47003434 ; undefined
 228:	5f4f4950 	.inst	0x5f4f4950 ; undefined
 22c:	344e4950 	cbz	w16, 9cb54 <__bss_end__+0x1bc14>
 230:	50470035 	adr	x21, 8e236 <__bss_end__+0xd2f6>
 234:	505f4f49 	adr	x9, bec1e <__bss_end__+0x3dcde>
 238:	36344e49 	tbz	w9, #6, ffffffffffff8c00 <__bss_end__+0xfffffffffff77cc0>
 23c:	49504700 	.inst	0x49504700 ; undefined
 240:	49505f4f 	.inst	0x49505f4f ; undefined
 244:	0037344e 	.inst	0x0037344e ; NYI
 248:	4f495047 	.inst	0x4f495047 ; undefined
 24c:	4e49505f 	.inst	0x4e49505f ; undefined
 250:	47003834 	.inst	0x47003834 ; undefined
 254:	5f4f4950 	.inst	0x5f4f4950 ; undefined
 258:	344e4950 	cbz	w16, 9cb80 <__bss_end__+0x1bc40>
 25c:	50470039 	adr	x25, 8e262 <__bss_end__+0xd322>
 260:	465f4f49 	.inst	0x465f4f49 ; undefined
 264:	5f434e55 	.inst	0x5f434e55 ; undefined
 268:	33544c41 	.inst	0x33544c41 ; undefined
 26c:	69706700 	ldpsw	x0, x25, [x24, #-128]
 270:	5047006f 	adr	x15, 8e27e <__bss_end__+0xd33e>
 274:	465f4f49 	.inst	0x465f4f49 ; undefined
 278:	5f434e55 	.inst	0x5f434e55 ; undefined
 27c:	55504e49 	.inst	0x55504e49 ; undefined
 280:	4e470054 	.inst	0x4e470054 ; undefined
 284:	39432055 	ldrb	w21, [x2, #200]
 288:	2e372039 	usubl	v25.8h, v1.8b, v23.8b
 28c:	20302e32 	.inst	0x20302e32 ; undefined
 290:	70636d2d 	adr	x13, c7037 <__bss_end__+0x460f7>
 294:	6f633d75 	.inst	0x6f633d75 ; undefined
 298:	78657472 	.inst	0x78657472 ; undefined
 29c:	3335612d 	.inst	0x3335612d ; undefined
 2a0:	6c6d2d20 	ldnp	d0, d11, [x9, #-304]
 2a4:	6c747469 	ldnp	d9, d29, [x3, #-192]
 2a8:	6e652d65 	uqsub	v5.8h, v11.8h, v5.8h
 2ac:	6e616964 	fcvtxn2	v4.4s, v11.2d
 2b0:	616d2d20 	.inst	0x616d2d20 ; undefined
 2b4:	6c3d6962 	stnp	d2, d26, [x11, #-48]
 2b8:	20343670 	.inst	0x20343670 ; undefined
 2bc:	2d20672d 	stp	s13, s25, [x25, #-256]
 2c0:	2d20674f 	stp	s15, s25, [x26, #-256]
 2c4:	3d647473 	ldr	b19, [x3, #2333]
 2c8:	39756e67 	ldrb	w7, [x19, #3419]
 2cc:	662d2039 	.inst	0x662d2039 ; undefined
 2d0:	65657266 	fnmls	z6.h, p4/m, z19.h, z5.h
 2d4:	6e617473 	uabd	v19.8h, v3.8h, v1.8h
 2d8:	676e6964 	.inst	0x676e6964 ; undefined
 2dc:	6e662d20 	uqsub	v0.8h, v9.8h, v6.8h
 2e0:	6d6f2d6f 	ldp	d15, d11, [x11, #-272]
 2e4:	662d7469 	.inst	0x662d7469 ; undefined
 2e8:	656d6172 	fnmls	z18.h, p0/m, z11.h, z13.h
 2ec:	696f702d 	ldpsw	x13, x28, [x1, #-136]
 2f0:	7265746e 	.inst	0x7265746e ; undefined
 2f4:	62662d20 	.inst	0x62662d20 ; undefined
 2f8:	746b6361 	.inst	0x746b6361 ; undefined
 2fc:	65636172 	fnmls	z18.h, p0/m, z11.h, z3.h
 300:	56454c00 	.inst	0x56454c00 ; undefined
 304:	454c0030 	.inst	0x454c0030 ; undefined
 308:	6c003156 	stnp	d22, d12, [x10]
 30c:	2f736269 	umlsl	v9.4s, v19.4h, v3.h[3]
 310:	6f697067 	fcmla	v7.8h, v3.8h, v9.h[1], #270
 314:	4600632e 	.inst	0x4600632e ; undefined
 318:	00304e45 	.inst	0x00304e45 ; NYI
 31c:	31736572 	adds	w18, w11, #0xcd9, lsl #12
 320:	4e454600 	.inst	0x4e454600 ; undefined
 324:	53460031 	.inst	0x53460031 ; undefined
 328:	00304c45 	.inst	0x00304c45 ; NYI
 32c:	4c455346 	.inst	0x4c455346 ; undefined
 330:	53460031 	.inst	0x53460031 ; undefined
 334:	00324c45 	.inst	0x00324c45 ; NYI
 338:	4c455346 	.inst	0x4c455346 ; undefined
 33c:	53460033 	.inst	0x53460033 ; undefined
 340:	00344c45 	.inst	0x00344c45 ; NYI
 344:	4c455346 	.inst	0x4c455346 ; undefined
 348:	50470035 	adr	x21, 8e34e <__bss_end__+0xd40e>
 34c:	505f4f49 	adr	x9, bed36 <__bss_end__+0x3ddf6>
 350:	30314e49 	adr	x9, 62d19 <_start-0x1d2e7>
 354:	49504700 	.inst	0x49504700 ; undefined
 358:	49505f4f 	.inst	0x49505f4f ; undefined
 35c:	0031314e 	.inst	0x0031314e ; NYI
 360:	4f495047 	.inst	0x4f495047 ; undefined
 364:	4e49505f 	.inst	0x4e49505f ; undefined
 368:	47003231 	.inst	0x47003231 ; undefined
 36c:	5f4f4950 	.inst	0x5f4f4950 ; undefined
 370:	314e4950 	adds	w16, w10, #0x392, lsl #12
 374:	50470033 	adr	x19, 8e37a <__bss_end__+0xd43a>
 378:	505f4f49 	adr	x9, bed62 <__bss_end__+0x3de22>
 37c:	34314e49 	cbz	w9, 62d44 <_start-0x1d2bc>
 380:	49504700 	.inst	0x49504700 ; undefined
 384:	49505f4f 	.inst	0x49505f4f ; undefined
 388:	0035314e 	.inst	0x0035314e ; NYI
 38c:	4f495047 	.inst	0x4f495047 ; undefined
 390:	4e49505f 	.inst	0x4e49505f ; undefined
 394:	47003631 	.inst	0x47003631 ; undefined
 398:	5f4f4950 	.inst	0x5f4f4950 ; undefined
 39c:	314e4950 	adds	w16, w10, #0x392, lsl #12
 3a0:	50470037 	adr	x23, 8e3a6 <__bss_end__+0xd466>
 3a4:	505f4f49 	adr	x9, bed8e <__bss_end__+0x3de4e>
 3a8:	38314e49 	.inst	0x38314e49 ; undefined
 3ac:	49504700 	.inst	0x49504700 ; undefined
 3b0:	49505f4f 	.inst	0x49505f4f ; undefined
 3b4:	0039314e 	.inst	0x0039314e ; NYI
 3b8:	5f6e6970 	.inst	0x5f6e6970 ; undefined
 3bc:	635f6f74 	.inst	0x635f6f74 ; undefined
 3c0:	7261656c 	.inst	0x7261656c ; undefined
 3c4:	6765725f 	.inst	0x6765725f ; undefined
 3c8:	65747369 	fnmls	z9.h, p4/m, z27.h, z20.h
 3cc:	616d5f72 	.inst	0x616d5f72 ; undefined
 3d0:	70670070 	adr	x16, ce3df <__bss_end__+0x4d49f>
 3d4:	725f6f69 	.inst	0x725f6f69 ; undefined
 3d8:	73696765 	.inst	0x73696765 ; undefined
 3dc:	00726574 	.inst	0x00726574 ; undefined
 3e0:	6f697067 	fcmla	v7.8h, v3.8h, v9.h[1], #270
 3e4:	7465735f 	.inst	0x7465735f ; undefined
 3e8:	6e75665f 	umax	v31.8h, v18.8h, v21.8h
 3ec:	6f697463 	uqshl	v3.2d, v3.2d, #41
 3f0:	5047006e 	adr	x14, 8e3fe <__bss_end__+0xd4be>
 3f4:	505f4f49 	adr	x9, bedde <__bss_end__+0x3de9e>
 3f8:	30354e49 	adr	x9, 6adc1 <_start-0x1523f>
 3fc:	49504700 	.inst	0x49504700 ; undefined
 400:	49505f4f 	.inst	0x49505f4f ; undefined
 404:	0031354e 	.inst	0x0031354e ; NYI
 408:	4f495047 	.inst	0x4f495047 ; undefined
 40c:	4e49505f 	.inst	0x4e49505f ; undefined
 410:	47003235 	.inst	0x47003235 ; undefined
 414:	5f4f4950 	.inst	0x5f4f4950 ; undefined
 418:	354e4950 	cbnz	w16, 9cd40 <__bss_end__+0x1be00>
 41c:	50470033 	adr	x19, 8e422 <__bss_end__+0xd4e2>
 420:	465f4f49 	.inst	0x465f4f49 ; undefined
 424:	5f434e55 	.inst	0x5f434e55 ; undefined
 428:	30544c41 	adr	x1, a8db1 <__bss_end__+0x27e71>
 42c:	49504700 	.inst	0x49504700 ; undefined
 430:	49505f4f 	.inst	0x49505f4f ; undefined
 434:	49465f4e 	.inst	0x49465f4e ; undefined
 438:	00545352 	.inst	0x00545352 ; undefined
 43c:	4f495047 	.inst	0x4f495047 ; undefined
 440:	4e55465f 	.inst	0x4e55465f ; undefined
 444:	4c415f43 	.inst	0x4c415f43 ; undefined
 448:	72003254 	ands	w20, w18, #0x1fff
 44c:	00327365 	.inst	0x00327365 ; NYI
 450:	33736572 	.inst	0x33736572 ; undefined
 454:	73657200 	.inst	0x73657200 ; undefined
 458:	65720034 	fmla	z20.h, p0/m, z1.h, z18.h
 45c:	72003573 	ands	w19, w11, #0x3fff
 460:	00367365 	.inst	0x00367365 ; NYI
 464:	5f6e6970 	.inst	0x5f6e6970 ; undefined
 468:	6c5f6f74 	ldnp	d20, d27, [x27, #496]
 46c:	725f7665 	.inst	0x725f7665 ; undefined
 470:	73696765 	.inst	0x73696765 ; undefined
 474:	5f726574 	.inst	0x5f726574 ; undefined
 478:	0070616d 	.inst	0x0070616d ; undefined
 47c:	30544553 	adr	x19, a8d25 <__bss_end__+0x27de5>
 480:	54455300 	b.eq	8aee0 <__bss_end__+0x9fa0>  // b.none
 484:	70670031 	adr	x17, ce48b <__bss_end__+0x4d54b>
 488:	735f6f69 	.inst	0x735f6f69 ; undefined
 48c:	695f7465 	ldpsw	x5, x29, [x3, #248]
 490:	7475706e 	.inst	0x7475706e ; undefined
 494:	49504700 	.inst	0x49504700 ; undefined
 498:	49505f4f 	.inst	0x49505f4f ; undefined
 49c:	4700304e 	.inst	0x4700304e ; undefined
 4a0:	5f4f4950 	.inst	0x5f4f4950 ; undefined
 4a4:	314e4950 	adds	w16, w10, #0x392, lsl #12
 4a8:	49504700 	.inst	0x49504700 ; undefined
 4ac:	49505f4f 	.inst	0x49505f4f ; undefined
 4b0:	4700324e 	.inst	0x4700324e ; undefined
 4b4:	5f4f4950 	.inst	0x5f4f4950 ; undefined
 4b8:	334e4950 	.inst	0x334e4950 ; undefined
 4bc:	49504700 	.inst	0x49504700 ; undefined
 4c0:	49505f4f 	.inst	0x49505f4f ; undefined
 4c4:	4700344e 	.inst	0x4700344e ; undefined
 4c8:	5f4f4950 	.inst	0x5f4f4950 ; undefined
 4cc:	354e4950 	cbnz	w16, 9cdf4 <__bss_end__+0x1beb4>
 4d0:	49504700 	.inst	0x49504700 ; undefined
 4d4:	49505f4f 	.inst	0x49505f4f ; undefined
 4d8:	4700364e 	.inst	0x4700364e ; undefined
 4dc:	5f4f4950 	.inst	0x5f4f4950 ; undefined
 4e0:	374e4950 	tbnz	w16, #9, ffffffffffffce08 <__bss_end__+0xfffffffffff7bec8>
 4e4:	49504700 	.inst	0x49504700 ; undefined
 4e8:	49505f4f 	.inst	0x49505f4f ; undefined
 4ec:	4700384e 	.inst	0x4700384e ; undefined
 4f0:	5f4f4950 	.inst	0x5f4f4950 ; undefined
 4f4:	394e4950 	ldrb	w16, [x10, #914]
 4f8:	69706700 	ldpsw	x0, x25, [x24, #-128]
 4fc:	6e695f6f 	uqrshl	v15.8h, v27.8h, v9.8h
 500:	47007469 	.inst	0x47007469 ; undefined
 504:	5f4f4950 	.inst	0x5f4f4950 ; undefined
 508:	324e4950 	.inst	0x324e4950 ; undefined
 50c:	50470030 	adr	x16, 8e512 <__bss_end__+0xd5d2>
 510:	505f4f49 	adr	x9, beefa <__bss_end__+0x3dfba>
 514:	31324e49 	adds	w9, w18, #0xc93
 518:	49504700 	.inst	0x49504700 ; undefined
 51c:	49505f4f 	.inst	0x49505f4f ; undefined
 520:	0032324e 	.inst	0x0032324e ; NYI
 524:	4f495047 	.inst	0x4f495047 ; undefined
 528:	4e49505f 	.inst	0x4e49505f ; undefined
 52c:	47003332 	.inst	0x47003332 ; undefined
 530:	5f4f4950 	.inst	0x5f4f4950 ; undefined
 534:	324e4950 	.inst	0x324e4950 ; undefined
 538:	50470034 	adr	x20, 8e53e <__bss_end__+0xd5fe>
 53c:	505f4f49 	adr	x9, bef26 <__bss_end__+0x3dfe6>
 540:	35324e49 	cbnz	w9, 64f08 <_start-0x1b0f8>
 544:	49504700 	.inst	0x49504700 ; undefined
 548:	49505f4f 	.inst	0x49505f4f ; undefined
 54c:	0036324e 	.inst	0x0036324e ; NYI
 550:	4f495047 	.inst	0x4f495047 ; undefined
 554:	4e49505f 	.inst	0x4e49505f ; undefined
 558:	47003732 	.inst	0x47003732 ; undefined
 55c:	5f4f4950 	.inst	0x5f4f4950 ; undefined
 560:	324e4950 	.inst	0x324e4950 ; undefined
 564:	50470038 	adr	x24, 8e56a <__bss_end__+0xd62a>
 568:	505f4f49 	adr	x9, bef52 <__bss_end__+0x3e012>
 56c:	39324e49 	strb	w9, [x18, #3219]
 570:	4e455200 	.inst	0x4e455200 ; undefined
 574:	70670031 	adr	x17, ce57b <__bss_end__+0x4d63b>
 578:	675f6f69 	.inst	0x675f6f69 ; undefined
 57c:	665f7465 	.inst	0x665f7465 ; undefined
 580:	74636e75 	.inst	0x74636e75 ; undefined
 584:	006e6f69 	.inst	0x006e6f69 ; undefined
 588:	5f6e6970 	.inst	0x5f6e6970 ; undefined
 58c:	735f6f74 	.inst	0x735f6f74 ; undefined
 590:	725f7465 	.inst	0x725f7465 ; undefined
 594:	73696765 	.inst	0x73696765 ; undefined
 598:	5f726574 	.inst	0x5f726574 ; undefined
 59c:	0070616d 	.inst	0x0070616d ; undefined
 5a0:	6f697067 	fcmla	v7.8h, v3.8h, v9.h[1], #270
 5a4:	6165725f 	.inst	0x6165725f ; undefined
 5a8:	736d0064 	.inst	0x736d0064 ; undefined
 5ac:	66006365 	.inst	0x66006365 ; undefined
 5b0:	5f656572 	.inst	0x5f656572 ; undefined
 5b4:	6e6e7572 	uabd	v18.8h, v11.8h, v14.8h
 5b8:	5f676e69 	.inst	0x5f676e69 ; undefined
 5bc:	6e756f63 	umin	v3.8h, v27.8h, v21.8h
 5c0:	00726574 	.inst	0x00726574 ; undefined
 5c4:	7362696c 	.inst	0x7362696c ; undefined
 5c8:	6d69742f 	ldp	d15, d29, [x1, #-368]
 5cc:	632e7265 	.inst	0x632e7265 ; undefined
 5d0:	6d697400 	ldp	d0, d29, [x0, #-368]
 5d4:	695f7265 	ldpsw	x5, x28, [x19, #248]
 5d8:	0074696e 	.inst	0x0074696e ; undefined
 5dc:	5f776172 	.inst	0x5f776172 ; undefined
 5e0:	00717269 	.inst	0x00717269 ; undefined
 5e4:	656d6974 	fnmls	z20.h, p2/m, z11.h, z13.h
 5e8:	65725f72 	fnmla	z18.h, p7/m, z27.h, z18.h
 5ec:	74736967 	.inst	0x74736967 ; undefined
 5f0:	00737265 	.inst	0x00737265 ; undefined
 5f4:	656d6974 	fnmls	z20.h, p2/m, z11.h, z13.h
 5f8:	65645f72 	fnmla	z18.h, p7/m, z27.h, z4.h
 5fc:	0079616c 	.inst	0x0079616c ; undefined
 600:	656d6974 	fnmls	z20.h, p2/m, z11.h, z13.h
 604:	65645f72 	fnmla	z18.h, p7/m, z27.h, z4.h
 608:	5f79616c 	.inst	0x5f79616c ; undefined
 60c:	70007375 	adr	x21, 147b <_start-0x7eb85>
 610:	645f6572 	fcmla	z18.h, p1/m, z11.h, z31.h, #270
 614:	64697669 	.inst	0x64697669 ; undefined
 618:	69007265 	.inst	0x69007265 ; undefined
 61c:	635f7172 	.inst	0x635f7172 ; undefined
 620:	7261656c 	.inst	0x7261656c ; undefined
 624:	6b63615f 	.inst	0x6b63615f ; undefined
 628:	6d697400 	ldp	d0, d29, [x0, #-368]
 62c:	645f7265 	fcmla	z5.h, p4/m, z19.h, z31.h, #270
 630:	79616c65 	ldrh	w5, [x3, #4278]
 634:	00736d5f 	.inst	0x00736d5f ; undefined
 638:	756c6176 	.inst	0x756c6176 ; undefined
 63c:	65720065 	fmla	z5.h, p0/m, z3.h, z18.h
 640:	64616f6c 	.inst	0x64616f6c ; undefined
 644:	6e6f6300 	rsubhn2	v0.8h, v24.4s, v15.4s
 648:	6c6f7274 	ldnp	d20, d28, [x19, #-272]
 64c:	65737500 	fnmls	z0.h, p5/m, z8.h, z19.h
 650:	616d0063 	.inst	0x616d0063 ; undefined
 654:	64656b73 	.inst	0x64656b73 ; undefined
 658:	7172695f 	cmp	w10, #0xc9a, lsl #12
 65c:	6d697400 	ldp	d0, d29, [x0, #-368]
 660:	675f7265 	.inst	0x675f7265 ; undefined
 664:	745f7465 	.inst	0x745f7465 ; undefined
 668:	736b6369 	.inst	0x736b6369 ; undefined
 66c:	7a697300 	.inst	0x7a697300 ; undefined
 670:	00745f65 	.inst	0x00745f65 ; undefined
 674:	6c5f3173 	ldnp	d19, d12, [x11, #496]
 678:	74676e65 	.inst	0x74676e65 ; undefined
 67c:	6f6c0068 	mla	v8.8h, v3.8h, v12.h[2]
 680:	7520676e 	.inst	0x7520676e ; undefined
 684:	6769736e 	.inst	0x6769736e ; undefined
 688:	2064656e 	.inst	0x2064656e ; undefined
 68c:	00746e69 	.inst	0x00746e69 ; undefined
 690:	74727473 	.inst	0x74727473 ; undefined
 694:	6d756e6f 	ldp	d15, d27, [x19, #-176]
 698:	6365645f 	.inst	0x6365645f ; undefined
 69c:	6c616d69 	ldnp	d9, d27, [x11, #-496]
 6a0:	72747300 	.inst	0x72747300 ; undefined
 6a4:	756e6f74 	.inst	0x756e6f74 ; undefined
 6a8:	65685f6d 	fnmla	z13.h, p7/m, z27.h, z8.h
 6ac:	6e650078 	uaddl2	v24.4s, v3.8h, v5.8h
 6b0:	666f5f64 	.inst	0x666f5f64 ; undefined
 6b4:	7473645f 	.inst	0x7473645f ; undefined
 6b8:	6e6f6c00 	umin	v0.8h, v0.8h, v15.8h
 6bc:	6e692067 	usubl2	v7.4s, v3.8h, v9.8h
 6c0:	74730074 	.inst	0x74730074 ; undefined
 6c4:	706d6372 	adr	x18, db333 <__bss_end__+0x5a3f3>
 6c8:	6d656d00 	ldp	d0, d27, [x8, #-432]
 6cc:	00746573 	.inst	0x00746573 ; undefined
 6d0:	636d656d 	.inst	0x636d656d ; undefined
 6d4:	73007970 	.inst	0x73007970 ; undefined
 6d8:	6f747274 	.inst	0x6f747274 ; undefined
 6dc:	006d756e 	.inst	0x006d756e ; undefined
 6e0:	6c727473 	ldnp	d19, d29, [x3, #-224]
 6e4:	73006e65 	.inst	0x73006e65 ; undefined
 6e8:	636c7274 	.inst	0x636c7274 ; undefined
 6ec:	6d007461 	stp	d1, d29, [x3]
 6f0:	69737861 	ldpsw	x1, x30, [x3, #-104]
 6f4:	7300657a 	.inst	0x7300657a ; undefined
 6f8:	656c5f32 	fnmla	z18.h, p7/m, z25.h, z12.h
 6fc:	6874676e 	.inst	0x6874676e ; undefined
 700:	62696c00 	.inst	0x62696c00 ; undefined
 704:	74732f73 	.inst	0x74732f73 ; undefined
 708:	676e6972 	.inst	0x676e6972 ; undefined
 70c:	00632e73 	.inst	0x00632e73 ; undefined
 710:	70646e65 	adr	x5, c94df <__bss_end__+0x4859f>
 714:	64007274 	.inst	0x64007274 ; undefined
 718:	74696769 	.inst	0x74696769 ; undefined
 71c:	6f635f73 	.inst	0x6f635f73 ; undefined
 720:	00746e75 	.inst	0x00746e75 ; undefined
 724:	756f636e 	.inst	0x756f636e ; undefined
 728:	5f00746e 	.inst	0x5f00746e ; undefined
 72c:	6174735f 	.inst	0x6174735f ; undefined
 730:	76006b63 	.inst	0x76006b63 ; undefined
 734:	72706e73 	.inst	0x72706e73 ; undefined
 738:	66746e69 	.inst	0x66746e69 ; undefined
 73c:	736e7500 	.inst	0x736e7500 ; undefined
 740:	656e6769 	fnmls	z9.h, p1/m, z27.h, z14.h
 744:	6f745f64 	.inst	0x6f745f64 ; undefined
 748:	7361625f 	.inst	0x7361625f ; undefined
 74c:	696c0065 	ldpsw	x5, x0, [x3, #-160]
 750:	702f7362 	adr	x2, 5f5bf <_start-0x20a41>
 754:	746e6972 	.inst	0x746e6972 ; undefined
 758:	00632e66 	.inst	0x00632e66 ; undefined
 75c:	72675f5f 	.inst	0x72675f5f ; undefined
 760:	706f745f 	adr	xzr, df5eb <__bss_end__+0x5e6ab>
 764:	64617000 	.inst	0x64617000 ; undefined
 768:	676e6964 	.inst	0x676e6964 ; undefined
 76c:	66666f00 	.inst	0x66666f00 ; undefined
 770:	5f746573 	.inst	0x5f746573 ; undefined
 774:	636c6163 	.inst	0x636c6163 ; undefined
 778:	765f5f00 	.inst	0x765f5f00 ; undefined
 77c:	696c5f61 	ldpsw	x1, x23, [x27, #-160]
 780:	5f007473 	.inst	0x5f007473 ; undefined
 784:	5f72765f 	sqshl	d31, d18, #50
 788:	7366666f 	.inst	0x7366666f ; undefined
 78c:	6e696d00 	umin	v0.8h, v8.8h, v9.8h
 790:	6469775f 	.inst	0x6469775f ; undefined
 794:	75006874 	.inst	0x75006874 ; undefined
 798:	5f747261 	sqdmlsl	s1, h19, v4.h[3]
 79c:	63747570 	.inst	0x63747570 ; undefined
 7a0:	00726168 	.inst	0x00726168 ; undefined
 7a4:	72765f5f 	.inst	0x72765f5f ; undefined
 7a8:	706f745f 	adr	xzr, df633 <__bss_end__+0x5e6f3>
 7ac:	67726100 	.inst	0x67726100 ; undefined
 7b0:	68630073 	.inst	0x68630073 ; undefined
 7b4:	63617261 	.inst	0x63617261 ; undefined
 7b8:	73726574 	.inst	0x73726574 ; undefined
 7bc:	756f635f 	.inst	0x756f635f ; undefined
 7c0:	6600746e 	.inst	0x6600746e ; undefined
 7c4:	616d726f 	.inst	0x616d726f ; undefined
 7c8:	5f5f0074 	.inst	0x5f5f0074 ; undefined
 7cc:	63756e67 	.inst	0x63756e67 ; undefined
 7d0:	5f61765f 	sqshl	d31, d18, #33
 7d4:	7473696c 	.inst	0x7473696c ; undefined
 7d8:	66756200 	.inst	0x66756200 ; undefined
 7dc:	657a6973 	fnmls	z19.h, p2/m, z11.h, z26.h
 7e0:	675f5f00 	.inst	0x675f5f00 ; undefined
 7e4:	666f5f72 	.inst	0x666f5f72 ; undefined
 7e8:	64007366 	.inst	0x64007366 ; undefined
 7ec:	74696769 	.inst	0x74696769 ; undefined
 7f0:	756f635f 	.inst	0x756f635f ; undefined
 7f4:	6600746e 	.inst	0x6600746e ; undefined
 7f8:	656d6172 	fnmls	z18.h, p0/m, z11.h, z13.h
 7fc:	7300745f 	.inst	0x7300745f ; undefined
 800:	64657661 	.inst	0x64657661 ; undefined
 804:	6765725f 	.inst	0x6765725f ; undefined
 808:	65747369 	fnmls	z9.h, p4/m, z27.h, z20.h
 80c:	745f7372 	.inst	0x745f7372 ; undefined
 810:	6e697500 	uabd	v0.8h, v8.8h, v9.8h
 814:	72747074 	.inst	0x72747074 ; undefined
 818:	7300745f 	.inst	0x7300745f ; undefined
 81c:	64657661 	.inst	0x64657661 ; undefined
 820:	0070665f 	.inst	0x0070665f ; undefined
 824:	75736572 	.inst	0x75736572 ; undefined
 828:	6f5f656d 	sqshlu	v13.2d, v11.2d, #31
 82c:	65736666 	fnmls	z6.h, p1/m, z19.h, z19.h
 830:	65720074 	fmla	z20.h, p0/m, z3.h, z18.h
 834:	656d7573 	fnmls	z19.h, p5/m, z11.h, z13.h
 838:	6464615f 	.inst	0x6464615f ; undefined
 83c:	61730072 	.inst	0x61730072 ; undefined
 840:	5f646576 	.inst	0x5f646576 ; undefined
 844:	7500726c 	.inst	0x7500726c ; undefined
 848:	6769736e 	.inst	0x6769736e ; undefined
 84c:	2064656e 	.inst	0x2064656e ; undefined
 850:	72616863 	.inst	0x72616863 ; undefined
 854:	6f687300 	fcmla	v0.8h, v24.8h, v8.h[1], #270
 858:	75207472 	.inst	0x75207472 ; undefined
 85c:	6769736e 	.inst	0x6769736e ; undefined
 860:	2064656e 	.inst	0x2064656e ; undefined
 864:	00746e69 	.inst	0x00746e69 ; undefined
 868:	62726167 	.inst	0x62726167 ; undefined
 86c:	31656761 	adds	w1, w27, #0x959, lsl #12
 870:	72616700 	.inst	0x72616700 ; undefined
 874:	65676162 	fnmls	z2.h, p0/m, z11.h, z7.h
 878:	616d0032 	.inst	0x616d0032 ; undefined
 87c:	72665f78 	.inst	0x72665f78 ; undefined
 880:	73656d61 	.inst	0x73656d61 ; undefined
 884:	69727000 	ldpsw	x0, x28, [x0, #-112]
 888:	625f746e 	.inst	0x625f746e ; undefined
 88c:	746b6361 	.inst	0x746b6361 ; undefined
 890:	65636172 	fnmls	z18.h, p0/m, z11.h, z3.h
 894:	63616200 	.inst	0x63616200 ; undefined
 898:	6172746b 	.inst	0x6172746b ; undefined
 89c:	632e6563 	.inst	0x632e6563 ; undefined
 8a0:	6f687300 	fcmla	v0.8h, v24.8h, v8.h[1], #270
 8a4:	69207472 	.inst	0x69207472 ; undefined
 8a8:	6300746e 	.inst	0x6300746e ; undefined
 8ac:	665f7275 	.inst	0x665f7275 ; undefined
 8b0:	61730070 	.inst	0x61730070 ; undefined
 8b4:	5f646576 	.inst	0x5f646576 ; undefined
 8b8:	69676572 	ldpsw	x18, x25, [x11, #-200]
 8bc:	72657473 	.inst	0x72657473 ; undefined
 8c0:	00705f73 	.inst	0x00705f73 ; undefined
 8c4:	6e697270 	uabdl2	v16.4s, v19.8h, v9.8h
 8c8:	72665f74 	.inst	0x72665f74 ; undefined
 8cc:	73656d61 	.inst	0x73656d61 ; undefined
 8d0:	766e6900 	.inst	0x766e6900 ; undefined
 8d4:	64696c61 	.inst	0x64696c61 ; undefined
 8d8:	6d616e5f 	ldp	d31, d27, [x18, #-496]
 8dc:	61750065 	.inst	0x61750065 ; undefined
 8e0:	665f7472 	.inst	0x665f7472 ; undefined
 8e4:	6873756c 	.inst	0x6873756c ; undefined
 8e8:	61747300 	.inst	0x61747300 ; undefined
 8ec:	61750074 	.inst	0x61750074 ; undefined
 8f0:	685f7472 	.inst	0x685f7472 ; undefined
 8f4:	68637361 	.inst	0x68637361 ; undefined
 8f8:	64007261 	.inst	0x64007261 ; undefined
 8fc:	00617461 	.inst	0x00617461 ; undefined
 900:	74726175 	.inst	0x74726175 ; undefined
 904:	72617500 	.inst	0x72617500 ; undefined
 908:	65675f74 	fnmla	z20.h, p7/m, z27.h, z7.h
 90c:	61686374 	.inst	0x61686374 ; undefined
 910:	41550072 	.inst	0x41550072 ; undefined
 914:	62005452 	.inst	0x62005452 ; undefined
 918:	00647561 	.inst	0x00647561 ; undefined
 91c:	746e6975 	.inst	0x746e6975 ; undefined
 920:	745f3233 	.inst	0x745f3233 ; undefined
 924:	72617500 	.inst	0x72617500 ; undefined
 928:	6e695f74 	uqrshl	v20.8h, v27.8h, v9.8h
 92c:	5f007469 	.inst	0x5f007469 ; undefined
 930:	6c6f6f42 	ldnp	d2, d27, [x26, #-272]
 934:	72637300 	.inst	0x72637300 ; undefined
 938:	68637461 	.inst	0x68637461 ; undefined
 93c:	62696c00 	.inst	0x62696c00 ; undefined
 940:	61752f73 	.inst	0x61752f73 ; undefined
 944:	632e7472 	.inst	0x632e7472 ; undefined
 948:	746e6300 	.inst	0x746e6300 ; undefined
 94c:	6572006c 	fmla	z12.h, p0/m, z3.h, z18.h
 950:	746c7573 	.inst	0x746c7573 ; undefined
 954:	66696400 	.inst	0x66696400 ; undefined
 958:	616d0066 	.inst	0x616d0066 ; undefined
 95c:	615f656b 	.inst	0x615f656b ; undefined
 960:	79617272 	ldrh	w18, [x19, #4280]
 964:	63616600 	.inst	0x63616600 ; undefined
 968:	69726f74 	ldpsw	x20, x27, [x27, #-112]
 96c:	61006c61 	.inst	0x61006c61 ; undefined
 970:	632e7070 	.inst	0x632e7070 ; undefined
 974:	62757300 	.inst	0x62757300 ; undefined
 978:	6e69616d 	rsubhn2	v13.8h, v11.4s, v9.4s
	...

Disassembly of section .comment:

0000000000000000 <.comment>:
   0:	3a434347 	ccmn	w26, w3, #0x7, mi  // mi = first
   4:	4e472820 	trn1	v0.8h, v1.8h, v7.8h
   8:	37202955 	tbnz	w21, #4, 530 <_start-0x7fad0>
   c:	302e322e 	adr	x14, 5c651 <_start-0x239af>
	...

Disassembly of section .debug_frame:

0000000000000000 <.debug_frame>:
   0:	0000000c 	.inst	0x0000000c ; undefined
   4:	ffffffff 	.inst	0xffffffff ; undefined
   8:	78040001 	sturh	w1, [x0, #64]
   c:	001f0c1e 	.inst	0x001f0c1e ; undefined
  10:	00000024 	.word	0x00000024
  14:	00000000 	.word	0x00000000
  18:	00080010 	.word	0x00080010
  1c:	00000000 	.word	0x00000000
  20:	00000038 	.word	0x00000038
  24:	00000000 	.word	0x00000000
  28:	9d100e41 	.word	0x9d100e41
  2c:	41019e02 	.word	0x41019e02
  30:	de4b1d0d 	.word	0xde4b1d0d
  34:	001f0cdd 	.word	0x001f0cdd
  38:	0000000c 	.word	0x0000000c
  3c:	ffffffff 	.word	0xffffffff
  40:	78040001 	.word	0x78040001
  44:	001f0c1e 	.word	0x001f0c1e
  48:	00000014 	.word	0x00000014
  4c:	00000038 	.word	0x00000038
  50:	00080048 	.word	0x00080048
  54:	00000000 	.word	0x00000000
  58:	000000a4 	.word	0x000000a4
  5c:	00000000 	.word	0x00000000
  60:	00000014 	.word	0x00000014
  64:	00000038 	.word	0x00000038
  68:	000800ec 	.word	0x000800ec
  6c:	00000000 	.word	0x00000000
  70:	00000008 	.word	0x00000008
  74:	00000000 	.word	0x00000000
  78:	00000014 	.word	0x00000014
  7c:	00000038 	.word	0x00000038
  80:	000800f4 	.word	0x000800f4
  84:	00000000 	.word	0x00000000
  88:	00000028 	.word	0x00000028
  8c:	00000000 	.word	0x00000000
  90:	00000014 	.word	0x00000014
  94:	00000038 	.word	0x00000038
  98:	0008011c 	.word	0x0008011c
  9c:	00000000 	.word	0x00000000
  a0:	00000028 	.word	0x00000028
  a4:	00000000 	.word	0x00000000
  a8:	00000014 	.word	0x00000014
  ac:	00000038 	.word	0x00000038
  b0:	00080144 	.word	0x00080144
  b4:	00000000 	.word	0x00000000
  b8:	00000028 	.word	0x00000028
  bc:	00000000 	.word	0x00000000
  c0:	00000014 	.word	0x00000014
  c4:	00000038 	.word	0x00000038
  c8:	0008016c 	.word	0x0008016c
  cc:	00000000 	.word	0x00000000
  d0:	00000010 	.word	0x00000010
  d4:	00000000 	.word	0x00000000
  d8:	0000002c 	.word	0x0000002c
  dc:	00000038 	.word	0x00000038
  e0:	0008017c 	.word	0x0008017c
  e4:	00000000 	.word	0x00000000
  e8:	00000078 	.word	0x00000078
  ec:	00000000 	.word	0x00000000
  f0:	9d200e47 	.word	0x9d200e47
  f4:	41039e04 	.word	0x41039e04
  f8:	93411d0d 	.word	0x93411d0d
  fc:	53019402 	.word	0x53019402
 100:	d4d3ddde 	.word	0xd4d3ddde
 104:	00001f0c 	.word	0x00001f0c
 108:	0000002c 	.word	0x0000002c
 10c:	00000038 	.word	0x00000038
 110:	000801f4 	.word	0x000801f4
 114:	00000000 	.word	0x00000000
 118:	0000005c 	.word	0x0000005c
 11c:	00000000 	.word	0x00000000
 120:	9d200e41 	.word	0x9d200e41
 124:	41039e04 	.word	0x41039e04
 128:	93411d0d 	.word	0x93411d0d
 12c:	de0a5102 	.word	0xde0a5102
 130:	1f0cd3dd 	.word	0x1f0cd3dd
 134:	000b4100 	.word	0x000b4100
 138:	00000024 	.word	0x00000024
 13c:	00000038 	.word	0x00000038
 140:	00080250 	.word	0x00080250
 144:	00000000 	.word	0x00000000
 148:	00000018 	.word	0x00000018
 14c:	00000000 	.word	0x00000000
 150:	9d100e41 	.word	0x9d100e41
 154:	41019e02 	.word	0x41019e02
 158:	de431d0d 	.word	0xde431d0d
 15c:	001f0cdd 	.word	0x001f0cdd
 160:	00000024 	.word	0x00000024
 164:	00000038 	.word	0x00000038
 168:	00080268 	.word	0x00080268
 16c:	00000000 	.word	0x00000000
 170:	00000018 	.word	0x00000018
 174:	00000000 	.word	0x00000000
 178:	9d100e41 	.word	0x9d100e41
 17c:	41019e02 	.word	0x41019e02
 180:	de431d0d 	.word	0xde431d0d
 184:	001f0cdd 	.word	0x001f0cdd
 188:	00000034 	.word	0x00000034
 18c:	00000038 	.word	0x00000038
 190:	00080280 	.word	0x00080280
 194:	00000000 	.word	0x00000000
 198:	00000054 	.word	0x00000054
 19c:	00000000 	.word	0x00000000
 1a0:	9d300e41 	.word	0x9d300e41
 1a4:	41059e06 	.word	0x41059e06
 1a8:	93421d0d 	.word	0x93421d0d
 1ac:	95039404 	.word	0x95039404
 1b0:	de0a4d02 	.word	0xde0a4d02
 1b4:	d4d3d5dd 	.word	0xd4d3d5dd
 1b8:	41001f0c 	.word	0x41001f0c
 1bc:	0000000b 	.word	0x0000000b
 1c0:	0000002c 	.word	0x0000002c
 1c4:	00000038 	.word	0x00000038
 1c8:	000802d4 	.word	0x000802d4
 1cc:	00000000 	.word	0x00000000
 1d0:	00000038 	.word	0x00000038
 1d4:	00000000 	.word	0x00000000
 1d8:	9d200e41 	.word	0x9d200e41
 1dc:	41039e04 	.word	0x41039e04
 1e0:	93411d0d 	.word	0x93411d0d
 1e4:	4a019402 	.word	0x4a019402
 1e8:	d4d3ddde 	.word	0xd4d3ddde
 1ec:	00001f0c 	.word	0x00001f0c
 1f0:	0000000c 	.word	0x0000000c
 1f4:	ffffffff 	.word	0xffffffff
 1f8:	78040001 	.word	0x78040001
 1fc:	001f0c1e 	.word	0x001f0c1e
 200:	00000014 	.word	0x00000014
 204:	000001f0 	.word	0x000001f0
 208:	0008030c 	.word	0x0008030c
 20c:	00000000 	.word	0x00000000
 210:	00000020 	.word	0x00000020
 214:	00000000 	.word	0x00000000
 218:	00000014 	.word	0x00000014
 21c:	000001f0 	.word	0x000001f0
 220:	0008032c 	.word	0x0008032c
 224:	00000000 	.word	0x00000000
 228:	00000010 	.word	0x00000010
 22c:	00000000 	.word	0x00000000
 230:	0000002c 	.word	0x0000002c
 234:	000001f0 	.word	0x000001f0
 238:	0008033c 	.word	0x0008033c
 23c:	00000000 	.word	0x00000000
 240:	00000034 	.word	0x00000034
 244:	00000000 	.word	0x00000000
 248:	9d200e41 	.word	0x9d200e41
 24c:	41039e04 	.word	0x41039e04
 250:	93411d0d 	.word	0x93411d0d
 254:	49019402 	.word	0x49019402
 258:	d4d3ddde 	.word	0xd4d3ddde
 25c:	00001f0c 	.word	0x00001f0c
 260:	00000024 	.word	0x00000024
 264:	000001f0 	.word	0x000001f0
 268:	00080370 	.word	0x00080370
 26c:	00000000 	.word	0x00000000
 270:	0000001c 	.word	0x0000001c
 274:	00000000 	.word	0x00000000
 278:	9d100e41 	.word	0x9d100e41
 27c:	41019e02 	.word	0x41019e02
 280:	de441d0d 	.word	0xde441d0d
 284:	001f0cdd 	.word	0x001f0cdd
 288:	00000024 	.word	0x00000024
 28c:	000001f0 	.word	0x000001f0
 290:	0008038c 	.word	0x0008038c
 294:	00000000 	.word	0x00000000
 298:	00000020 	.word	0x00000020
 29c:	00000000 	.word	0x00000000
 2a0:	9d100e41 	.word	0x9d100e41
 2a4:	41019e02 	.word	0x41019e02
 2a8:	de451d0d 	.word	0xde451d0d
 2ac:	001f0cdd 	.word	0x001f0cdd
 2b0:	0000000c 	.word	0x0000000c
 2b4:	ffffffff 	.word	0xffffffff
 2b8:	78040001 	.word	0x78040001
 2bc:	001f0c1e 	.word	0x001f0c1e
 2c0:	00000014 	.word	0x00000014
 2c4:	000002b0 	.word	0x000002b0
 2c8:	000803ac 	.word	0x000803ac
 2cc:	00000000 	.word	0x00000000
 2d0:	00000074 	.word	0x00000074
 2d4:	00000000 	.word	0x00000000
 2d8:	00000014 	.word	0x00000014
 2dc:	000002b0 	.word	0x000002b0
 2e0:	00080420 	.word	0x00080420
 2e4:	00000000 	.word	0x00000000
 2e8:	0000003c 	.word	0x0000003c
 2ec:	00000000 	.word	0x00000000
 2f0:	00000014 	.word	0x00000014
 2f4:	000002b0 	.word	0x000002b0
 2f8:	0008045c 	.word	0x0008045c
 2fc:	00000000 	.word	0x00000000
 300:	0000001c 	.word	0x0000001c
 304:	00000000 	.word	0x00000000
 308:	00000014 	.word	0x00000014
 30c:	000002b0 	.word	0x000002b0
 310:	00080478 	.word	0x00080478
 314:	00000000 	.word	0x00000000
 318:	00000020 	.word	0x00000020
 31c:	00000000 	.word	0x00000000
 320:	00000014 	.word	0x00000014
 324:	000002b0 	.word	0x000002b0
 328:	00080498 	.word	0x00080498
 32c:	00000000 	.word	0x00000000
 330:	00000024 	.word	0x00000024
 334:	00000000 	.word	0x00000000
 338:	00000034 	.word	0x00000034
 33c:	000002b0 	.word	0x000002b0
 340:	000804bc 	.word	0x000804bc
 344:	00000000 	.word	0x00000000
 348:	00000068 	.word	0x00000068
 34c:	00000000 	.word	0x00000000
 350:	9d300e41 	.word	0x9d300e41
 354:	41059e06 	.word	0x41059e06
 358:	93421d0d 	.word	0x93421d0d
 35c:	95039404 	.word	0x95039404
 360:	de0a4c02 	.word	0xde0a4c02
 364:	d4d3d5dd 	.word	0xd4d3d5dd
 368:	41001f0c 	.word	0x41001f0c
 36c:	0000000b 	.word	0x0000000b
 370:	0000002c 	.word	0x0000002c
 374:	000002b0 	.word	0x000002b0
 378:	00080524 	.word	0x00080524
 37c:	00000000 	.word	0x00000000
 380:	00000040 	.word	0x00000040
 384:	00000000 	.word	0x00000000
 388:	9d100e41 	.word	0x9d100e41
 38c:	41019e02 	.word	0x41019e02
 390:	0a4b1d0d 	.word	0x0a4b1d0d
 394:	1f0cddde 	.word	0x1f0cddde
 398:	000b4100 	.word	0x000b4100
 39c:	00000000 	.word	0x00000000
 3a0:	00000034 	.word	0x00000034
 3a4:	000002b0 	.word	0x000002b0
 3a8:	00080564 	.word	0x00080564
 3ac:	00000000 	.word	0x00000000
 3b0:	00000070 	.word	0x00000070
 3b4:	00000000 	.word	0x00000000
 3b8:	9d300e41 	.word	0x9d300e41
 3bc:	41059e06 	.word	0x41059e06
 3c0:	93421d0d 	.word	0x93421d0d
 3c4:	95039404 	.word	0x95039404
 3c8:	ddde5702 	.word	0xddde5702
 3cc:	0cd4d3d5 	.word	0x0cd4d3d5
 3d0:	0000001f 	.word	0x0000001f
 3d4:	00000000 	.word	0x00000000
 3d8:	0000000c 	.word	0x0000000c
 3dc:	ffffffff 	.word	0xffffffff
 3e0:	78040001 	.word	0x78040001
 3e4:	001f0c1e 	.word	0x001f0c1e
 3e8:	00000014 	.word	0x00000014
 3ec:	000003d8 	.word	0x000003d8
 3f0:	000805d4 	.word	0x000805d4
 3f4:	00000000 	.word	0x00000000
 3f8:	00000040 	.word	0x00000040
 3fc:	00000000 	.word	0x00000000
 400:	00000014 	.word	0x00000014
 404:	000003d8 	.word	0x000003d8
 408:	00080614 	.word	0x00080614
 40c:	00000000 	.word	0x00000000
 410:	00000028 	.word	0x00000028
 414:	00000000 	.word	0x00000000
 418:	0000003c 	.word	0x0000003c
 41c:	000003d8 	.word	0x000003d8
 420:	0008063c 	.word	0x0008063c
 424:	00000000 	.word	0x00000000
 428:	000000e0 	.word	0x000000e0
 42c:	00000000 	.word	0x00000000
 430:	9d400e41 	.word	0x9d400e41
 434:	41079e08 	.word	0x41079e08
 438:	93431d0d 	.word	0x93431d0d
 43c:	95059406 	.word	0x95059406
 440:	97039604 	.word	0x97039604
 444:	de0a7002 	.word	0xde0a7002
 448:	d6d5d7dd 	.word	0xd6d5d7dd
 44c:	1f0cd4d3 	.word	0x1f0cd4d3
 450:	000b4100 	.word	0x000b4100
 454:	00000000 	.word	0x00000000
 458:	0000002c 	.word	0x0000002c
 45c:	000003d8 	.word	0x000003d8
 460:	0008071c 	.word	0x0008071c
 464:	00000000 	.word	0x00000000
 468:	00000040 	.word	0x00000040
 46c:	00000000 	.word	0x00000000
 470:	9d100e41 	.word	0x9d100e41
 474:	41019e02 	.word	0x41019e02
 478:	0a441d0d 	.word	0x0a441d0d
 47c:	1f0cddde 	.word	0x1f0cddde
 480:	000b4100 	.word	0x000b4100
 484:	00000000 	.word	0x00000000
 488:	0000003c 	.word	0x0000003c
 48c:	000003d8 	.word	0x000003d8
 490:	0008075c 	.word	0x0008075c
 494:	00000000 	.word	0x00000000
 498:	00000334 	.word	0x00000334
 49c:	00000000 	.word	0x00000000
 4a0:	9d500e41 	.word	0x9d500e41
 4a4:	41099e0a 	.word	0x41099e0a
 4a8:	93431d0d 	.word	0x93431d0d
 4ac:	95079408 	.word	0x95079408
 4b0:	97059606 	.word	0x97059606
 4b4:	02039804 	.word	0x02039804
 4b8:	d7dddec7 	.word	0xd7dddec7
 4bc:	d3d6d5d8 	.word	0xd3d6d5d8
 4c0:	001f0cd4 	.word	0x001f0cd4
 4c4:	00000000 	.word	0x00000000
 4c8:	0000002c 	.word	0x0000002c
 4cc:	000003d8 	.word	0x000003d8
 4d0:	00080a90 	.word	0x00080a90
 4d4:	00000000 	.word	0x00000000
 4d8:	00000080 	.word	0x00000080
 4dc:	00000000 	.word	0x00000000
 4e0:	02800e41 	.word	0x02800e41
 4e4:	1f9e209d 	.word	0x1f9e209d
 4e8:	5d1d0d41 	.word	0x5d1d0d41
 4ec:	1f0cddde 	.word	0x1f0cddde
	...
 4f8:	00000034 	.word	0x00000034
 4fc:	000003d8 	.word	0x000003d8
 500:	00080b10 	.word	0x00080b10
 504:	00000000 	.word	0x00000000
 508:	000000d0 	.word	0x000000d0
 50c:	00000000 	.word	0x00000000
 510:	0aa00e41 	.word	0x0aa00e41
 514:	01a49d41 	.word	0x01a49d41
 518:	4101a39e 	.word	0x4101a39e
 51c:	93411d0d 	.word	0x93411d0d
 520:	a19401a2 	.word	0xa19401a2
 524:	dedd6f01 	.word	0xdedd6f01
 528:	1f0cd4d3 	.word	0x1f0cd4d3
 52c:	00000000 	.word	0x00000000
 530:	0000000c 	.word	0x0000000c
 534:	ffffffff 	.word	0xffffffff
 538:	78040001 	.word	0x78040001
 53c:	001f0c1e 	.word	0x001f0c1e
 540:	00000014 	.word	0x00000014
 544:	00000530 	.word	0x00000530
 548:	00080be0 	.word	0x00080be0
 54c:	00000000 	.word	0x00000000
 550:	00000058 	.word	0x00000058
 554:	00000000 	.word	0x00000000
 558:	00000034 	.word	0x00000034
 55c:	00000530 	.word	0x00000530
 560:	00080c38 	.word	0x00080c38
 564:	00000000 	.word	0x00000000
 568:	00000068 	.word	0x00000068
 56c:	00000000 	.word	0x00000000
 570:	9d300e41 	.word	0x9d300e41
 574:	41059e06 	.word	0x41059e06
 578:	93421d0d 	.word	0x93421d0d
 57c:	95039404 	.word	0x95039404
 580:	ddde5502 	.word	0xddde5502
 584:	0cd4d3d5 	.word	0x0cd4d3d5
 588:	0000001f 	.word	0x0000001f
 58c:	00000000 	.word	0x00000000
 590:	0000002c 	.word	0x0000002c
 594:	00000530 	.word	0x00000530
 598:	00080ca0 	.word	0x00080ca0
 59c:	00000000 	.word	0x00000000
 5a0:	00000028 	.word	0x00000028
 5a4:	00000000 	.word	0x00000000
 5a8:	02800e41 	.word	0x02800e41
 5ac:	1f9e209d 	.word	0x1f9e209d
 5b0:	471d0d41 	.word	0x471d0d41
 5b4:	1f0cddde 	.word	0x1f0cddde
	...
 5c0:	0000000c 	.word	0x0000000c
 5c4:	ffffffff 	.word	0xffffffff
 5c8:	78040001 	.word	0x78040001
 5cc:	001f0c1e 	.word	0x001f0c1e
 5d0:	00000024 	.word	0x00000024
 5d4:	000005c0 	.word	0x000005c0
 5d8:	00080cc8 	.word	0x00080cc8
 5dc:	00000000 	.word	0x00000000
 5e0:	00000070 	.word	0x00000070
 5e4:	00000000 	.word	0x00000000
 5e8:	9d100e41 	.word	0x9d100e41
 5ec:	41019e02 	.word	0x41019e02
 5f0:	de591d0d 	.word	0xde591d0d
 5f4:	001f0cdd 	.word	0x001f0cdd
 5f8:	00000014 	.word	0x00000014
 5fc:	000005c0 	.word	0x000005c0
 600:	00080d38 	.word	0x00080d38
 604:	00000000 	.word	0x00000000
 608:	00000024 	.word	0x00000024
 60c:	00000000 	.word	0x00000000
 610:	0000002c 	.word	0x0000002c
 614:	000005c0 	.word	0x000005c0
 618:	00080d5c 	.word	0x00080d5c
 61c:	00000000 	.word	0x00000000
 620:	00000050 	.word	0x00000050
 624:	00000000 	.word	0x00000000
 628:	9d200e41 	.word	0x9d200e41
 62c:	41039e04 	.word	0x41039e04
 630:	93411d0d 	.word	0x93411d0d
 634:	de0a4d02 	.word	0xde0a4d02
 638:	1f0cd3dd 	.word	0x1f0cd3dd
 63c:	000b4100 	.word	0x000b4100
 640:	00000014 	.word	0x00000014
 644:	000005c0 	.word	0x000005c0
 648:	00080dac 	.word	0x00080dac
 64c:	00000000 	.word	0x00000000
 650:	00000014 	.word	0x00000014
 654:	00000000 	.word	0x00000000
 658:	00000014 	.word	0x00000014
 65c:	000005c0 	.word	0x000005c0
 660:	00080dc0 	.word	0x00080dc0
 664:	00000000 	.word	0x00000000
 668:	00000014 	.word	0x00000014
 66c:	00000000 	.word	0x00000000
 670:	0000000c 	.word	0x0000000c
 674:	ffffffff 	.word	0xffffffff
 678:	78040001 	.word	0x78040001
 67c:	001f0c1e 	.word	0x001f0c1e
 680:	00000014 	.word	0x00000014
 684:	00000670 	.word	0x00000670
 688:	00080dd4 	.word	0x00080dd4
 68c:	00000000 	.word	0x00000000
 690:	0000000c 	.word	0x0000000c
 694:	00000000 	.word	0x00000000
 698:	0000002c 	.word	0x0000002c
 69c:	00000670 	.word	0x00000670
 6a0:	00080de0 	.word	0x00080de0
 6a4:	00000000 	.word	0x00000000
 6a8:	00000038 	.word	0x00000038
 6ac:	00000000 	.word	0x00000000
 6b0:	9d200e45 	.word	0x9d200e45
 6b4:	41039e04 	.word	0x41039e04
 6b8:	93411d0d 	.word	0x93411d0d
 6bc:	ddde4602 	.word	0xddde4602
 6c0:	001f0cd3 	.word	0x001f0cd3
 6c4:	00000000 	.word	0x00000000
 6c8:	00000024 	.word	0x00000024
 6cc:	00000670 	.word	0x00000670
 6d0:	00080e18 	.word	0x00080e18
 6d4:	00000000 	.word	0x00000000
 6d8:	00000044 	.word	0x00000044
 6dc:	00000000 	.word	0x00000000
 6e0:	9d300e41 	.word	0x9d300e41
 6e4:	41059e06 	.word	0x41059e06
 6e8:	de4e1d0d 	.word	0xde4e1d0d
 6ec:	001f0cdd 	.word	0x001f0cdd
 6f0:	00000024 	.word	0x00000024
 6f4:	00000670 	.word	0x00000670
 6f8:	00080e5c 	.word	0x00080e5c
 6fc:	00000000 	.word	0x00000000
 700:	00000018 	.word	0x00000018
 704:	00000000 	.word	0x00000000
 708:	9d100e41 	.word	0x9d100e41
 70c:	41019e02 	.word	0x41019e02
 710:	de431d0d 	.word	0xde431d0d
 714:	001f0cdd 	.word	0x001f0cdd
 718:	0000002c 	.word	0x0000002c
 71c:	00000670 	.word	0x00000670
 720:	00080e74 	.word	0x00080e74
 724:	00000000 	.word	0x00000000
 728:	00000040 	.word	0x00000040
 72c:	00000000 	.word	0x00000000
 730:	9d200e41 	.word	0x9d200e41
 734:	41039e04 	.word	0x41039e04
 738:	93411d0d 	.word	0x93411d0d
 73c:	4c019402 	.word	0x4c019402
 740:	d4d3ddde 	.word	0xd4d3ddde
 744:	00001f0c 	.word	0x00001f0c
 748:	00000024 	.word	0x00000024
 74c:	00000670 	.word	0x00000670
 750:	00080eb4 	.word	0x00080eb4
 754:	00000000 	.word	0x00000000
 758:	00000038 	.word	0x00000038
 75c:	00000000 	.word	0x00000000
 760:	9d100e41 	.word	0x9d100e41
 764:	41019e02 	.word	0x41019e02
 768:	00001d0d 	.word	0x00001d0d
 76c:	00000000 	.word	0x00000000

Disassembly of section .debug_ranges:

0000000000000000 <.debug_ranges>:
   0:	000000ac 	.inst	0x000000ac ; undefined
   4:	00000000 	.inst	0x00000000 ; undefined
   8:	000000b0 	.inst	0x000000b0 ; undefined
   c:	00000000 	.inst	0x00000000 ; undefined
  10:	000000b4 	.inst	0x000000b4 ; undefined
  14:	00000000 	.inst	0x00000000 ; undefined
  18:	00000124 	.inst	0x00000124 ; undefined
	...
